
meteoMN.elf:     file format elf32-avr

Sections:
Idx Name          Size      VMA       LMA       File off  Algn
  0 .data         00000080  00800100  00001dc4  00001e58  2**0
                  CONTENTS, ALLOC, LOAD, DATA
  1 .text         00001dc4  00000000  00000000  00000094  2**1
                  CONTENTS, ALLOC, LOAD, READONLY, CODE
  2 .bss          0000001c  00800180  00800180  00001ed8  2**0
                  ALLOC
  3 .comment      00000030  00000000  00000000  00001ed8  2**0
                  CONTENTS, READONLY
  4 .note.gnu.avr.deviceinfo 0000003c  00000000  00000000  00001f08  2**2
                  CONTENTS, READONLY
  5 .debug_aranges 000003e0  00000000  00000000  00001f44  2**0
                  CONTENTS, READONLY, DEBUGGING
  6 .debug_info   00003fe2  00000000  00000000  00002324  2**0
                  CONTENTS, READONLY, DEBUGGING
  7 .debug_abbrev 000014ba  00000000  00000000  00006306  2**0
                  CONTENTS, READONLY, DEBUGGING
  8 .debug_line   00001f6d  00000000  00000000  000077c0  2**0
                  CONTENTS, READONLY, DEBUGGING
  9 .debug_frame  00000a08  00000000  00000000  00009730  2**2
                  CONTENTS, READONLY, DEBUGGING
 10 .debug_str    00000cc4  00000000  00000000  0000a138  2**0
                  CONTENTS, READONLY, DEBUGGING
 11 .debug_loc    00002684  00000000  00000000  0000adfc  2**0
                  CONTENTS, READONLY, DEBUGGING
 12 .debug_ranges 00000338  00000000  00000000  0000d480  2**0
                  CONTENTS, READONLY, DEBUGGING

Disassembly of section .text:

00000000 <__vectors>:
       0:	42 c2       	rjmp	.+1156   	; 0x486 <__ctors_end>
       2:	5c c2       	rjmp	.+1208   	; 0x4bc <__bad_interrupt>
       4:	5b c2       	rjmp	.+1206   	; 0x4bc <__bad_interrupt>
       6:	5a c2       	rjmp	.+1204   	; 0x4bc <__bad_interrupt>
       8:	59 c2       	rjmp	.+1202   	; 0x4bc <__bad_interrupt>
       a:	58 c2       	rjmp	.+1200   	; 0x4bc <__bad_interrupt>
       c:	57 c2       	rjmp	.+1198   	; 0x4bc <__bad_interrupt>
       e:	56 c2       	rjmp	.+1196   	; 0x4bc <__bad_interrupt>
      10:	55 c2       	rjmp	.+1194   	; 0x4bc <__bad_interrupt>
      12:	54 c2       	rjmp	.+1192   	; 0x4bc <__bad_interrupt>
      14:	53 c2       	rjmp	.+1190   	; 0x4bc <__bad_interrupt>
      16:	11 c8       	rjmp	.-4062   	; 0xfffff03a <__eeprom_end+0xff7ef03a>
      18:	51 c2       	rjmp	.+1186   	; 0x4bc <__bad_interrupt>
      1a:	50 c2       	rjmp	.+1184   	; 0x4bc <__bad_interrupt>
      1c:	4f c2       	rjmp	.+1182   	; 0x4bc <__bad_interrupt>
      1e:	4e c2       	rjmp	.+1180   	; 0x4bc <__bad_interrupt>
      20:	4d c2       	rjmp	.+1178   	; 0x4bc <__bad_interrupt>
      22:	4c c2       	rjmp	.+1176   	; 0x4bc <__bad_interrupt>
      24:	4b c2       	rjmp	.+1174   	; 0x4bc <__bad_interrupt>
      26:	4a c2       	rjmp	.+1172   	; 0x4bc <__bad_interrupt>
      28:	49 c2       	rjmp	.+1170   	; 0x4bc <__bad_interrupt>
      2a:	48 c2       	rjmp	.+1168   	; 0x4bc <__bad_interrupt>
      2c:	47 c2       	rjmp	.+1166   	; 0x4bc <__bad_interrupt>
      2e:	46 c2       	rjmp	.+1164   	; 0x4bc <__bad_interrupt>
      30:	45 c2       	rjmp	.+1162   	; 0x4bc <__bad_interrupt>
      32:	44 c2       	rjmp	.+1160   	; 0x4bc <__bad_interrupt>
      34:	07 63       	ori	r16, 0x37	; 55
      36:	42 36       	cpi	r20, 0x62	; 98
      38:	b7 9b       	sbis	0x16, 7	; 22
      3a:	d8 a7       	std	Y+40, r29	; 0x28
      3c:	1a 39       	cpi	r17, 0x9A	; 154
      3e:	68 56       	subi	r22, 0x68	; 104
      40:	18 ae       	std	Y+56, r1	; 0x38
      42:	ba ab       	std	Y+50, r27	; 0x32
      44:	55 8c       	ldd	r5, Z+29	; 0x1d
      46:	1d 3c       	cpi	r17, 0xCD	; 205
      48:	b7 cc       	rjmp	.-1682   	; 0xfffff9b8 <__eeprom_end+0xff7ef9b8>
      4a:	57 63       	ori	r21, 0x37	; 55
      4c:	bd 6d       	ori	r27, 0xDD	; 221
      4e:	ed fd       	.word	0xfded	; ????
      50:	75 3e       	cpi	r23, 0xE5	; 229
      52:	f6 17       	cp	r31, r22
      54:	72 31       	cpi	r23, 0x12	; 18
      56:	bf 00       	.word	0x00bf	; ????
      58:	00 00       	nop
      5a:	80 3f       	cpi	r24, 0xF0	; 240
      5c:	08 00       	.word	0x0008	; ????
      5e:	00 00       	nop
      60:	be 92       	st	-X, r11
      62:	24 49       	sbci	r18, 0x94	; 148
      64:	12 3e       	cpi	r17, 0xE2	; 226
      66:	ab aa       	std	Y+51, r10	; 0x33
      68:	aa 2a       	or	r10, r26
      6a:	be cd       	rjmp	.-1156   	; 0xfffffbe8 <__eeprom_end+0xff7efbe8>
      6c:	cc cc       	rjmp	.-1640   	; 0xfffffa06 <__eeprom_end+0xff7efa06>
      6e:	4c 3e       	cpi	r20, 0xEC	; 236
      70:	00 00       	nop
      72:	00 80       	ld	r0, Z
      74:	be ab       	std	Y+54, r27	; 0x36
      76:	aa aa       	std	Y+50, r10	; 0x32
      78:	aa 3e       	cpi	r26, 0xEA	; 234
      7a:	00 00       	nop
      7c:	00 00       	nop
      7e:	bf 00       	.word	0x00bf	; ????
      80:	00 00       	nop
      82:	80 3f       	cpi	r24, 0xF0	; 240
      84:	00 00       	nop
      86:	00 00       	nop
      88:	00 08       	sbc	r0, r0
      8a:	41 78       	andi	r20, 0x81	; 129
      8c:	d3 bb       	out	0x13, r29	; 19
      8e:	43 87       	std	Z+11, r20	; 0x0b
      90:	d1 13       	cpse	r29, r17
      92:	3d 19       	sub	r19, r13
      94:	0e 3c       	cpi	r16, 0xCE	; 206
      96:	c3 bd       	out	0x23, r28	; 35
      98:	42 82       	std	Z+2, r4	; 0x02
      9a:	ad 2b       	or	r26, r29
      9c:	3e 68       	ori	r19, 0x8E	; 142
      9e:	ec 82       	std	Y+4, r14	; 0x04
      a0:	76 be       	out	0x36, r7	; 54
      a2:	d9 8f       	std	Y+25, r29	; 0x19
      a4:	e1 a9       	ldd	r30, Z+49	; 0x31
      a6:	3e 4c       	sbci	r19, 0xCE	; 206
      a8:	80 ef       	ldi	r24, 0xF0	; 240
      aa:	ff be       	out	0x3f, r15	; 63
      ac:	01 c4       	rjmp	.+2050   	; 0x8b0 <ssd1306tx_stringxy+0x5e>
      ae:	ff 7f       	andi	r31, 0xFF	; 255
      b0:	3f 00       	.word	0x003f	; ????
      b2:	00 00       	nop
	...

000000b6 <__trampolines_end>:
      b6:	ae d5       	rcall	.+2908   	; 0xc14 <draw_its_time+0x4>
      b8:	f0 a8       	ldd	r15, Z+48	; 0x30
      ba:	3f d3       	rcall	.+1662   	; 0x73a <DHT_Read+0xcc>
      bc:	00 40       	sbci	r16, 0x00	; 0
      be:	8d 14       	cp	r8, r13
      c0:	20 00       	.word	0x0020	; ????
      c2:	a1 c8       	rjmp	.-3774   	; 0xfffff206 <__eeprom_end+0xff7ef206>
      c4:	da 12       	cpse	r13, r26
      c6:	81 3f       	cpi	r24, 0xF1	; 241
      c8:	d9 22       	and	r13, r25
      ca:	db 20       	and	r13, r11
      cc:	a4 a6       	std	Z+44, r10	; 0x2c
      ce:	2e af       	std	Y+62, r18	; 0x3e
      d0:	22 00       	.word	0x0022	; ????
      d2:	3f 21       	and	r19, r15
      d4:	00 7f       	andi	r16, 0xF0	; 240

000000d6 <ssd1306xled_font8x16data>:
	...
      e6:	00 00 00 f8 00 00 00 00 00 00 00 33 30 00 00 00     ...........30...
      f6:	00 10 0c 06 10 0c 06 00 00 00 00 00 00 00 00 00     ................
     106:	40 c0 78 40 c0 78 40 00 04 3f 04 04 3f 04 04 00     @.x@.x@..?..?...
     116:	00 70 88 fc 08 30 00 00 00 18 20 ff 21 1e 00 00     .p...0.... .!...
     126:	f0 08 f0 00 e0 18 00 00 00 21 1c 03 1e 21 1e 00     .........!...!..
     136:	00 f0 08 88 70 00 00 00 1e 21 23 24 19 27 21 10     ....p....!#$.'!.
     146:	10 16 0e 00 00 00 00 00 00 00 00 00 00 00 00 00     ................
     156:	00 00 00 e0 18 04 02 00 00 00 00 07 18 20 40 00     ............. @.
     166:	00 02 04 18 e0 00 00 00 00 40 20 18 07 00 00 00     .........@ .....
     176:	40 40 80 f0 80 40 40 00 02 02 01 0f 01 02 02 00     @@...@@.........
     186:	00 00 00 f0 00 00 00 00 01 01 01 1f 01 01 01 00     ................
	...
     19e:	80 b0 70 00 00 00 00 00 00 00 00 00 00 00 00 00     ..p.............
     1ae:	00 01 01 01 01 01 01 01 00 00 00 00 00 00 00 00     ................
     1be:	00 30 30 00 00 00 00 00 00 00 00 00 80 60 18 04     .00..........`..
     1ce:	00 60 18 06 01 00 00 00 00 e0 10 08 08 10 e0 00     .`..............
     1de:	00 0f 10 20 20 10 0f 00 00 10 10 f8 00 00 00 00     ...  ...........
     1ee:	00 20 20 3f 20 20 00 00 00 70 08 08 08 88 70 00     .  ?  ...p....p.
     1fe:	00 30 28 24 22 21 30 00 00 30 08 88 88 48 30 00     .0($"!0..0...H0.
     20e:	00 18 20 20 20 11 0e 00 00 00 c0 20 10 f8 00 00     ..   ...... ....
     21e:	00 07 04 24 24 3f 24 00 00 f8 08 88 88 08 08 00     ...$$?$.........
     22e:	00 19 21 20 20 11 0e 00 00 e0 10 88 88 18 00 00     ..!  ...........
     23e:	00 0f 11 20 20 11 0e 00 00 38 08 08 c8 38 08 00     ...  ....8...8..
     24e:	00 00 00 3f 00 00 00 00 00 70 88 08 08 88 70 00     ...?.....p....p.
     25e:	00 1c 22 21 21 22 1c 00 00 e0 10 08 08 10 e0 00     .."!!"..........
     26e:	00 00 31 22 22 11 0f 00 00 00 00 c0 c0 00 00 00     ..1""...........
     27e:	00 00 00 30 30 00 00 00 00 00 00 80 00 00 00 00     ...00...........
     28e:	00 00 80 60 00 00 00 00 00 00 80 40 20 10 08 00     ...`.......@ ...
     29e:	00 01 02 04 08 10 20 00 40 40 40 40 40 40 40 00     ...... .@@@@@@@.
     2ae:	04 04 04 04 04 04 04 00 00 08 10 20 40 80 00 00     ........... @...
     2be:	00 20 10 08 04 02 01 00 00 70 48 08 08 08 f0 00     . .......pH.....
     2ce:	00 00 00 30 36 01 00 00 c0 30 c8 28 e8 10 e0 00     ...06....0.(....
     2de:	07 18 27 24 23 14 0b 00 00 00 c0 38 e0 00 00 00     ..'$#......8....
     2ee:	20 3c 23 02 02 27 38 20 08 f8 88 88 88 70 00 00      <#..'8 .....p..
     2fe:	20 3f 20 20 20 11 0e 00 c0 30 08 08 08 08 38 00      ?   ....0....8.
     30e:	07 18 20 20 20 10 08 00 08 f8 08 08 08 10 e0 00     ..   ...........
     31e:	20 3f 20 20 20 10 0f 00 08 f8 88 88 e8 08 10 00      ?   ...........
     32e:	20 3f 20 20 23 20 18 00 08 f8 88 88 e8 08 10 00      ?  # ..........
     33e:	20 3f 20 00 03 00 00 00 c0 30 08 08 08 38 00 00      ? ......0...8..
     34e:	07 18 20 20 22 1e 02 00 08 f8 08 00 00 08 f8 08     ..  "...........
     35e:	20 3f 21 01 01 21 3f 20 00 08 08 f8 08 08 00 00      ?!..!? ........
     36e:	00 20 20 3f 20 20 00 00 00 00 08 08 f8 08 08 00     .  ?  ..........
     37e:	c0 80 80 80 7f 00 00 00 08 f8 88 c0 28 18 08 00     ............(...
     38e:	20 3f 20 01 26 38 20 00 08 f8 08 00 00 00 00 00      ? .&8 .........
     39e:	20 3f 20 20 20 20 30 00 08 f8 f8 00 f8 f8 08 00      ?    0.........
     3ae:	20 3f 00 3f 00 3f 20 00 08 f8 30 c0 00 08 f8 08      ?.?.? ...0.....
     3be:	20 3f 20 00 07 18 3f 00 e0 10 08 08 08 10 e0 00      ? ...?.........
     3ce:	0f 10 20 20 20 10 0f 00 08 f8 08 08 08 08 f0 00     ..   ...........
     3de:	20 3f 21 01 01 01 00 00 e0 10 08 08 08 10 e0 00      ?!.............
     3ee:	0f 18 24 24 38 50 4f 00 08 f8 88 88 88 88 70 00     ..$$8PO.......p.
     3fe:	20 3f 20 00 03 0c 30 20 00 70 88 08 08 08 38 00      ? ...0 .p....8.
     40e:	00 38 20 21 21 22 1c 00 18 08 08 f8 08 08 18 00     .8 !!"..........
     41e:	00 00 20 3f 20 00 00 00 08 f8 08 00 00 08 f8 08     .. ? ...........
     42e:	00 1f 20 20 20 20 1f 00 08 78 88 00 00 c8 38 08     ..    ...x....8.
     43e:	00 00 07 38 0e 01 00 00 f8 08 00 f8 00 08 f8 00     ...8............
     44e:	03 3c 07 00 07 3c 03 00 08 18 68 80 80 68 18 08     .<...<....h..h..
     45e:	20 30 2c 03 03 2c 30 20 08 38 c8 00 c8 38 08 00      0,..,0 .8...8..
     46e:	00 00 20 3f 20 00 00 00 10 08 08 08 c8 38 08 00     .. ? ........8..
     47e:	20 38 26 21 20 20 18 00                              8&!  ..

00000486 <__ctors_end>:
     486:	11 24       	eor	r1, r1
     488:	1f be       	out	0x3f, r1	; 63
     48a:	cf ef       	ldi	r28, 0xFF	; 255
     48c:	d4 e0       	ldi	r29, 0x04	; 4
     48e:	de bf       	out	0x3e, r29	; 62
     490:	cd bf       	out	0x3d, r28	; 61

00000492 <__do_copy_data>:
     492:	11 e0       	ldi	r17, 0x01	; 1
     494:	a0 e0       	ldi	r26, 0x00	; 0
     496:	b1 e0       	ldi	r27, 0x01	; 1
     498:	e4 ec       	ldi	r30, 0xC4	; 196
     49a:	fd e1       	ldi	r31, 0x1D	; 29
     49c:	02 c0       	rjmp	.+4      	; 0x4a2 <__do_copy_data+0x10>
     49e:	05 90       	lpm	r0, Z+
     4a0:	0d 92       	st	X+, r0
     4a2:	a0 38       	cpi	r26, 0x80	; 128
     4a4:	b1 07       	cpc	r27, r17
     4a6:	d9 f7       	brne	.-10     	; 0x49e <__do_copy_data+0xc>

000004a8 <__do_clear_bss>:
     4a8:	21 e0       	ldi	r18, 0x01	; 1
     4aa:	a0 e8       	ldi	r26, 0x80	; 128
     4ac:	b1 e0       	ldi	r27, 0x01	; 1
     4ae:	01 c0       	rjmp	.+2      	; 0x4b2 <.do_clear_bss_start>

000004b0 <.do_clear_bss_loop>:
     4b0:	1d 92       	st	X+, r1

000004b2 <.do_clear_bss_start>:
     4b2:	ac 39       	cpi	r26, 0x9C	; 156
     4b4:	b2 07       	cpc	r27, r18
     4b6:	e1 f7       	brne	.-8      	; 0x4b0 <.do_clear_bss_loop>
     4b8:	b2 d5       	rcall	.+2916   	; 0x101e <main>
     4ba:	82 cc       	rjmp	.-1788   	; 0xfffffdc0 <__eeprom_end+0xff7efdc0>

000004bc <__bad_interrupt>:
     4bc:	a1 cd       	rjmp	.-1214   	; 0x0 <__vectors>

000004be <DHT_Setup>:
	#else
		//round up by default
		__ticks_dc = (uint32_t)(ceil(fabs(__tmp)));
	#endif

	__builtin_avr_delay_cycles(__ticks_dc);
     4be:	2f ef       	ldi	r18, 0xFF	; 255
     4c0:	83 ed       	ldi	r24, 0xD3	; 211
     4c2:	90 e3       	ldi	r25, 0x30	; 48
     4c4:	21 50       	subi	r18, 0x01	; 1
     4c6:	80 40       	sbci	r24, 0x00	; 0
     4c8:	90 40       	sbci	r25, 0x00	; 0
     4ca:	e1 f7       	brne	.-8      	; 0x4c4 <DHT_Setup+0x6>
     4cc:	00 c0       	rjmp	.+0      	; 0x4ce <DHT_Setup+0x10>
     4ce:	00 00       	nop
//----- Functions -----------------------------//
//Setup sensor.
void DHT_Setup()
{
	_delay_ms(__DHT_Delay_Setup);
	__DHT_STATUS = DHT_Ok;
     4d0:	10 92 88 01 	sts	0x0188, r1	; 0x800188 <__DHT_STATUS>
     4d4:	08 95       	ret

000004d6 <DHT_GetStatus>:

//Get sensor status.
enum DHT_Status_t DHT_GetStatus()
{
	return (__DHT_STATUS);
}
     4d6:	80 91 88 01 	lds	r24, 0x0188	; 0x800188 <__DHT_STATUS>
     4da:	08 95       	ret

000004dc <DHT_ReadRaw>:

//Read raw buffer from sensor.
enum DHT_Status_t DHT_ReadRaw(uint8_t Data[4])
{
     4dc:	cf 92       	push	r12
     4de:	df 92       	push	r13
     4e0:	ef 92       	push	r14
     4e2:	ff 92       	push	r15
     4e4:	cf 93       	push	r28
     4e6:	df 93       	push	r29
     4e8:	00 d0       	rcall	.+0      	; 0x4ea <DHT_ReadRaw+0xe>
     4ea:	00 d0       	rcall	.+0      	; 0x4ec <DHT_ReadRaw+0x10>
     4ec:	1f 92       	push	r1
     4ee:	cd b7       	in	r28, 0x3d	; 61
     4f0:	de b7       	in	r29, 0x3e	; 62
     4f2:	68 2f       	mov	r22, r24
     4f4:	79 2f       	mov	r23, r25
	uint8_t buffer[5] = {0, 0, 0, 0, 0};
     4f6:	fe 01       	movw	r30, r28
     4f8:	31 96       	adiw	r30, 0x01	; 1
     4fa:	85 e0       	ldi	r24, 0x05	; 5
     4fc:	df 01       	movw	r26, r30
     4fe:	1d 92       	st	X+, r1
     500:	8a 95       	dec	r24
     502:	e9 f7       	brne	.-6      	; 0x4fe <DHT_ReadRaw+0x22>
	uint8_t retries, i;
	int8_t j;
	__DHT_STATUS = DHT_Ok;
     504:	10 92 88 01 	sts	0x0188, r1	; 0x800188 <__DHT_STATUS>

	//----- Step 1 - Start communication -----
	if (__DHT_STATUS == DHT_Ok)
	{
		//Request data
		DigitalWrite(DHT_Pin, Low);			//DHT_PIN = 0
     508:	5e 98       	cbi	0x0b, 6	; 11
		PinMode(DHT_Pin, Output);			//DHT_PIN = Output
     50a:	56 9a       	sbi	0x0a, 6	; 10
     50c:	8f e3       	ldi	r24, 0x3F	; 63
     50e:	9c e9       	ldi	r25, 0x9C	; 156
     510:	01 97       	sbiw	r24, 0x01	; 1
     512:	f1 f7       	brne	.-4      	; 0x510 <__stack+0x11>
     514:	00 c0       	rjmp	.+0      	; 0x516 <__stack+0x17>
     516:	00 00       	nop
		_delay_ms(__DHT_Delay_Read);

		//Setup DHT_PIN as input with pull-up resistor so as to read data
		DigitalWrite(DHT_Pin, High);		//DHT_PIN = 1 (Pull-up resistor)
     518:	5e 9a       	sbi	0x0b, 6	; 11
		PinMode(DHT_Pin, Input);			//DHT_PIN = Input
     51a:	56 98       	cbi	0x0a, 6	; 10

		//Wait for response for 20-40us
		retries = 0;
		while (DigitalRead(DHT_Pin))
     51c:	2f e1       	ldi	r18, 0x1F	; 31
     51e:	0a c0       	rjmp	.+20     	; 0x534 <__stack+0x35>
	#else
		//round up by default
		__ticks_dc = (uint32_t)(ceil(fabs(__tmp)));
	#endif

	__builtin_avr_delay_cycles(__ticks_dc);
     520:	95 e0       	ldi	r25, 0x05	; 5
     522:	9a 95       	dec	r25
     524:	f1 f7       	brne	.-4      	; 0x522 <__stack+0x23>
     526:	00 00       	nop
     528:	21 50       	subi	r18, 0x01	; 1
		{
			_delay_us(2);
			retries += 2;
			if (retries > 60)
     52a:	21 f4       	brne	.+8      	; 0x534 <__stack+0x35>
			{
				__DHT_STATUS = DHT_Error_Timeout;	//Timeout error
     52c:	84 e0       	ldi	r24, 0x04	; 4
     52e:	80 93 88 01 	sts	0x0188, r24	; 0x800188 <__DHT_STATUS>
     532:	8f c0       	rjmp	.+286    	; 0x652 <__stack+0x153>
		DigitalWrite(DHT_Pin, High);		//DHT_PIN = 1 (Pull-up resistor)
		PinMode(DHT_Pin, Input);			//DHT_PIN = Input

		//Wait for response for 20-40us
		retries = 0;
		while (DigitalRead(DHT_Pin))
     534:	4e 99       	sbic	0x09, 6	; 9
     536:	f4 cf       	rjmp	.-24     	; 0x520 <__stack+0x21>
		}
	}
	//----------------------------------------

	//----- Step 2 - Wait for response -----
	if (__DHT_STATUS == DHT_Ok)
     538:	80 91 88 01 	lds	r24, 0x0188	; 0x800188 <__DHT_STATUS>
     53c:	88 23       	and	r24, r24
     53e:	59 f0       	breq	.+22     	; 0x556 <__stack+0x57>
     540:	88 c0       	rjmp	.+272    	; 0x652 <__stack+0x153>
     542:	a5 e0       	ldi	r26, 0x05	; 5
     544:	aa 95       	dec	r26
     546:	f1 f7       	brne	.-4      	; 0x544 <__stack+0x45>
     548:	00 00       	nop
     54a:	21 50       	subi	r18, 0x01	; 1
		retries = 0;
		while (!DigitalRead(DHT_Pin))
		{
			_delay_us(2);
			retries += 2;
			if (retries > 100)
     54c:	29 f4       	brne	.+10     	; 0x558 <__stack+0x59>
			{
				__DHT_STATUS = DHT_Error_Timeout;	//Timeout error
     54e:	84 e0       	ldi	r24, 0x04	; 4
     550:	80 93 88 01 	sts	0x0188, r24	; 0x800188 <__DHT_STATUS>
				break;
     554:	0e c0       	rjmp	.+28     	; 0x572 <__stack+0x73>
     556:	23 e3       	ldi	r18, 0x33	; 51
	if (__DHT_STATUS == DHT_Ok)
	{
		//Response sequence began
		//Wait for the first response to finish (low for ~80us)
		retries = 0;
		while (!DigitalRead(DHT_Pin))
     558:	4e 9b       	sbis	0x09, 6	; 9
     55a:	f3 cf       	rjmp	.-26     	; 0x542 <__stack+0x43>
     55c:	0a c0       	rjmp	.+20     	; 0x572 <__stack+0x73>
     55e:	b5 e0       	ldi	r27, 0x05	; 5
     560:	ba 95       	dec	r27
     562:	f1 f7       	brne	.-4      	; 0x560 <__stack+0x61>
     564:	00 00       	nop
     566:	21 50       	subi	r18, 0x01	; 1
		retries = 0;
		while(DigitalRead(DHT_Pin))
		{
			_delay_us(2);
			retries += 2;
			if (retries > 100)
     568:	29 f4       	brne	.+10     	; 0x574 <__stack+0x75>
			{
				__DHT_STATUS = DHT_Error_Timeout;	//Timeout error
     56a:	84 e0       	ldi	r24, 0x04	; 4
     56c:	80 93 88 01 	sts	0x0188, r24	; 0x800188 <__DHT_STATUS>
				break;
     570:	70 c0       	rjmp	.+224    	; 0x652 <__stack+0x153>
     572:	23 e3       	ldi	r18, 0x33	; 51
				break;
			}
		}
		//Wait for the last response to finish (high for ~80us)
		retries = 0;
		while(DigitalRead(DHT_Pin))
     574:	4e 99       	sbic	0x09, 6	; 9
     576:	f3 cf       	rjmp	.-26     	; 0x55e <__stack+0x5f>
		}
	}
	//--------------------------------------

	//----- Step 3 - Data transmission -----
	if (__DHT_STATUS == DHT_Ok)
     578:	80 91 88 01 	lds	r24, 0x0188	; 0x800188 <__DHT_STATUS>
     57c:	88 23       	and	r24, r24
     57e:	09 f4       	brne	.+2      	; 0x582 <__stack+0x83>
     580:	43 c0       	rjmp	.+134    	; 0x608 <__stack+0x109>
     582:	67 c0       	rjmp	.+206    	; 0x652 <__stack+0x153>
     584:	85 e0       	ldi	r24, 0x05	; 5
     586:	8a 95       	dec	r24
     588:	f1 f7       	brne	.-4      	; 0x586 <__stack+0x87>
     58a:	00 00       	nop
     58c:	21 50       	subi	r18, 0x01	; 1
				retries = 0;
				while(!DigitalRead(DHT_Pin))
				{
					_delay_us(2);
					retries += 2;
					if (retries > 70)
     58e:	31 f4       	brne	.+12     	; 0x59c <__stack+0x9d>
					{
						__DHT_STATUS = DHT_Error_Timeout;	//Timeout error
     590:	50 93 88 01 	sts	0x0188, r21	; 0x800188 <__DHT_STATUS>
						j = -1;								//Break inner for-loop
						i = 5;								//Break outer for-loop
     594:	45 e0       	ldi	r20, 0x05	; 5
     596:	34 c0       	rjmp	.+104    	; 0x600 <__stack+0x101>
     598:	42 2f       	mov	r20, r18
     59a:	24 e2       	ldi	r18, 0x24	; 36
		for (i = 0 ; i < 5 ; i++)
			for (j = 7 ; j >= 0 ; j--)
			{
				//There is always a leading low level of 50 us
				retries = 0;
				while(!DigitalRead(DHT_Pin))
     59c:	4e 9b       	sbis	0x09, 6	; 9
     59e:	f2 cf       	rjmp	.-28     	; 0x584 <__stack+0x85>
						i = 5;								//Break outer for-loop
						break;								//Break while loop
					}
				}

				if (__DHT_STATUS == DHT_Ok)
     5a0:	20 91 88 01 	lds	r18, 0x0188	; 0x800188 <__DHT_STATUS>
     5a4:	21 11       	cpse	r18, r1
     5a6:	29 c0       	rjmp	.+82     	; 0x5fa <__stack+0xfb>
     5a8:	9d e5       	ldi	r25, 0x5D	; 93
     5aa:	9a 95       	dec	r25
     5ac:	f1 f7       	brne	.-4      	; 0x5aa <__stack+0xab>
     5ae:	00 00       	nop
				{
					//We read data bit || 26-28us means '0' || 70us means '1'
					_delay_us(35);							//Wait for more than 28us
					if (DigitalRead(DHT_Pin))				//If HIGH
     5b0:	4e 9b       	sbis	0x09, 6	; 9
     5b2:	1e c0       	rjmp	.+60     	; 0x5f0 <__stack+0xf1>
						BitSet(buffer[i], j);				//bit = '1'
     5b4:	e1 e0       	ldi	r30, 0x01	; 1
     5b6:	f0 e0       	ldi	r31, 0x00	; 0
     5b8:	ec 0f       	add	r30, r28
     5ba:	fd 1f       	adc	r31, r29
     5bc:	e4 0f       	add	r30, r20
     5be:	f1 1d       	adc	r31, r1
     5c0:	20 81       	ld	r18, Z
     5c2:	d7 01       	movw	r26, r14
     5c4:	c6 01       	movw	r24, r12
     5c6:	03 2e       	mov	r0, r19
     5c8:	04 c0       	rjmp	.+8      	; 0x5d2 <__stack+0xd3>
     5ca:	88 0f       	add	r24, r24
     5cc:	99 1f       	adc	r25, r25
     5ce:	aa 1f       	adc	r26, r26
     5d0:	bb 1f       	adc	r27, r27
     5d2:	0a 94       	dec	r0
     5d4:	d2 f7       	brpl	.-12     	; 0x5ca <__stack+0xcb>
     5d6:	82 2b       	or	r24, r18
     5d8:	80 83       	st	Z, r24
     5da:	0a c0       	rjmp	.+20     	; 0x5f0 <__stack+0xf1>
     5dc:	a5 e0       	ldi	r26, 0x05	; 5
     5de:	aa 95       	dec	r26
     5e0:	f1 f7       	brne	.-4      	; 0x5de <__stack+0xdf>
     5e2:	00 00       	nop
     5e4:	21 50       	subi	r18, 0x01	; 1
					retries = 0;
					while(DigitalRead(DHT_Pin))
					{
						_delay_us(2);
						retries += 2;
						if (retries > 100)
     5e6:	29 f4       	brne	.+10     	; 0x5f2 <__stack+0xf3>
						{
							__DHT_STATUS = DHT_Error_Timeout;	//Timeout error
     5e8:	50 93 88 01 	sts	0x0188, r21	; 0x800188 <__DHT_STATUS>
							break;
     5ec:	24 2f       	mov	r18, r20
     5ee:	06 c0       	rjmp	.+12     	; 0x5fc <__stack+0xfd>
     5f0:	23 e3       	ldi	r18, 0x33	; 51
					_delay_us(35);							//Wait for more than 28us
					if (DigitalRead(DHT_Pin))				//If HIGH
						BitSet(buffer[i], j);				//bit = '1'

					retries = 0;
					while(DigitalRead(DHT_Pin))
     5f2:	4e 99       	sbic	0x09, 6	; 9
     5f4:	f3 cf       	rjmp	.-26     	; 0x5dc <__stack+0xdd>
     5f6:	24 2f       	mov	r18, r20
     5f8:	01 c0       	rjmp	.+2      	; 0x5fc <__stack+0xfd>
     5fa:	24 2f       	mov	r18, r20
	//----- Step 3 - Data transmission -----
	if (__DHT_STATUS == DHT_Ok)
	{
		//Reading 5 bytes, bit by bit
		for (i = 0 ; i < 5 ; i++)
			for (j = 7 ; j >= 0 ; j--)
     5fc:	31 50       	subi	r19, 0x01	; 1
     5fe:	62 f6       	brpl	.-104    	; 0x598 <__stack+0x99>

	//----- Step 3 - Data transmission -----
	if (__DHT_STATUS == DHT_Ok)
	{
		//Reading 5 bytes, bit by bit
		for (i = 0 ; i < 5 ; i++)
     600:	4f 5f       	subi	r20, 0xFF	; 255
     602:	45 30       	cpi	r20, 0x05	; 5
     604:	38 f0       	brcs	.+14     	; 0x614 <__stack+0x115>
     606:	08 c0       	rjmp	.+16     	; 0x618 <__stack+0x119>
     608:	40 e0       	ldi	r20, 0x00	; 0
				if (__DHT_STATUS == DHT_Ok)
				{
					//We read data bit || 26-28us means '0' || 70us means '1'
					_delay_us(35);							//Wait for more than 28us
					if (DigitalRead(DHT_Pin))				//If HIGH
						BitSet(buffer[i], j);				//bit = '1'
     60a:	c1 2c       	mov	r12, r1
     60c:	d1 2c       	mov	r13, r1
     60e:	76 01       	movw	r14, r12
     610:	c3 94       	inc	r12
					{
						_delay_us(2);
						retries += 2;
						if (retries > 100)
						{
							__DHT_STATUS = DHT_Error_Timeout;	//Timeout error
     612:	54 e0       	ldi	r21, 0x04	; 4
     614:	37 e0       	ldi	r19, 0x07	; 7
     616:	c1 cf       	rjmp	.-126    	; 0x59a <__stack+0x9b>
	}
	//--------------------------------------


	//----- Step 4 - Check checksum and return data -----
	if (__DHT_STATUS == DHT_Ok)
     618:	80 91 88 01 	lds	r24, 0x0188	; 0x800188 <__DHT_STATUS>
     61c:	81 11       	cpse	r24, r1
     61e:	19 c0       	rjmp	.+50     	; 0x652 <__stack+0x153>
	{
		if (((uint8_t)(buffer[0] + buffer[1] + buffer[2] + buffer[3])) != buffer[4])
     620:	99 81       	ldd	r25, Y+1	; 0x01
     622:	8a 81       	ldd	r24, Y+2	; 0x02
     624:	98 0f       	add	r25, r24
     626:	8b 81       	ldd	r24, Y+3	; 0x03
     628:	98 0f       	add	r25, r24
     62a:	8c 81       	ldd	r24, Y+4	; 0x04
     62c:	89 0f       	add	r24, r25
     62e:	9d 81       	ldd	r25, Y+5	; 0x05
     630:	89 17       	cp	r24, r25
     632:	21 f0       	breq	.+8      	; 0x63c <__stack+0x13d>
		{
			__DHT_STATUS = DHT_Error_Checksum;	//Checksum error
     634:	83 e0       	ldi	r24, 0x03	; 3
     636:	80 93 88 01 	sts	0x0188, r24	; 0x800188 <__DHT_STATUS>
     63a:	0b c0       	rjmp	.+22     	; 0x652 <__stack+0x153>
     63c:	de 01       	movw	r26, r28
     63e:	11 96       	adiw	r26, 0x01	; 1
     640:	e6 2f       	mov	r30, r22
     642:	f7 2f       	mov	r31, r23
     644:	ce 01       	movw	r24, r28
     646:	05 96       	adiw	r24, 0x05	; 5
			//data[1] = Humidity		(dec)
			//data[2] = Temperature		(int)
			//data[3] = Temperature		(dec)
			//data[4] = Checksum
			for (i = 0 ; i < 4 ; i++)
				Data[i] = buffer[i];
     648:	2d 91       	ld	r18, X+
     64a:	21 93       	st	Z+, r18
			//data[0] = Humidity		(int)
			//data[1] = Humidity		(dec)
			//data[2] = Temperature		(int)
			//data[3] = Temperature		(dec)
			//data[4] = Checksum
			for (i = 0 ; i < 4 ; i++)
     64c:	a8 17       	cp	r26, r24
     64e:	b9 07       	cpc	r27, r25
     650:	d9 f7       	brne	.-10     	; 0x648 <__stack+0x149>
		}
	}
	//---------------------------------------------------

	return DHT_GetStatus();
}
     652:	80 91 88 01 	lds	r24, 0x0188	; 0x800188 <__DHT_STATUS>
     656:	0f 90       	pop	r0
     658:	0f 90       	pop	r0
     65a:	0f 90       	pop	r0
     65c:	0f 90       	pop	r0
     65e:	0f 90       	pop	r0
     660:	df 91       	pop	r29
     662:	cf 91       	pop	r28
     664:	ff 90       	pop	r15
     666:	ef 90       	pop	r14
     668:	df 90       	pop	r13
     66a:	cf 90       	pop	r12
     66c:	08 95       	ret

0000066e <DHT_Read>:
	return DHT_Read(waste, Humidity);
}

//Read temperature and humidity.
enum DHT_Status_t DHT_Read(float *Temperature, float *Humidity)
{
     66e:	8f 92       	push	r8
     670:	9f 92       	push	r9
     672:	af 92       	push	r10
     674:	bf 92       	push	r11
     676:	cf 92       	push	r12
     678:	df 92       	push	r13
     67a:	ef 92       	push	r14
     67c:	ff 92       	push	r15
     67e:	0f 93       	push	r16
     680:	1f 93       	push	r17
     682:	cf 93       	push	r28
     684:	df 93       	push	r29
     686:	00 d0       	rcall	.+0      	; 0x688 <DHT_Read+0x1a>
     688:	00 d0       	rcall	.+0      	; 0x68a <DHT_Read+0x1c>
     68a:	cd b7       	in	r28, 0x3d	; 61
     68c:	de b7       	in	r29, 0x3e	; 62
     68e:	8c 01       	movw	r16, r24
     690:	7b 01       	movw	r14, r22
	uint8_t data[4] = { 0, 0, 0, 0 };
     692:	19 82       	std	Y+1, r1	; 0x01
     694:	1a 82       	std	Y+2, r1	; 0x02
     696:	1b 82       	std	Y+3, r1	; 0x03
     698:	1c 82       	std	Y+4, r1	; 0x04

	//Read data
	enum DHT_Status_t status =  DHT_ReadRaw(data);
     69a:	ce 01       	movw	r24, r28
     69c:	01 96       	adiw	r24, 0x01	; 1
     69e:	1e df       	rcall	.-452    	; 0x4dc <DHT_ReadRaw>

	//If read successfully
	if (status == DHT_Ok)
     6a0:	81 11       	cpse	r24, r1
     6a2:	69 c0       	rjmp	.+210    	; 0x776 <DHT_Read+0x108>
	{
		//Calculate values
		*Temperature = ExtractTemperature(data[2], data[3]);
     6a4:	6c 81       	ldd	r22, Y+4	; 0x04
     6a6:	8b 81       	ldd	r24, Y+3	; 0x03

	#if (DHT_Type == DHT11)
		temp = Data2;
	#elif (DHT_Type == DHT22)
		//(Integral<<8 + Decimal) / 10
		temp = (BitCheck(Data2, 7) ? ((((Data2 & 0x7F) << 8) | Data3) / (-10.0)) : (((Data2 << 8) | Data3) / 10.0));
     6a8:	88 23       	and	r24, r24
     6aa:	74 f4       	brge	.+28     	; 0x6c8 <DHT_Read+0x5a>
     6ac:	8f 77       	andi	r24, 0x7F	; 127
     6ae:	70 e0       	ldi	r23, 0x00	; 0
     6b0:	78 2b       	or	r23, r24
     6b2:	07 2e       	mov	r0, r23
     6b4:	00 0c       	add	r0, r0
     6b6:	88 0b       	sbc	r24, r24
     6b8:	99 0b       	sbc	r25, r25
     6ba:	a1 d8       	rcall	.-3774   	; 0xfffff7fe <__eeprom_end+0xff7ef7fe>
     6bc:	20 e0       	ldi	r18, 0x00	; 0
     6be:	30 e0       	ldi	r19, 0x00	; 0
     6c0:	40 e2       	ldi	r20, 0x20	; 32
     6c2:	51 ec       	ldi	r21, 0xC1	; 193
     6c4:	01 d8       	rcall	.-4094   	; 0xfffff6c8 <__eeprom_end+0xff7ef6c8>
     6c6:	0c c0       	rjmp	.+24     	; 0x6e0 <DHT_Read+0x72>
     6c8:	70 e0       	ldi	r23, 0x00	; 0
     6ca:	78 2b       	or	r23, r24
     6cc:	07 2e       	mov	r0, r23
     6ce:	00 0c       	add	r0, r0
     6d0:	88 0b       	sbc	r24, r24
     6d2:	99 0b       	sbc	r25, r25
     6d4:	94 d8       	rcall	.-3800   	; 0xfffff7fe <__eeprom_end+0xff7ef7fe>
     6d6:	20 e0       	ldi	r18, 0x00	; 0
     6d8:	30 e0       	ldi	r19, 0x00	; 0
     6da:	40 e2       	ldi	r20, 0x20	; 32
     6dc:	51 e4       	ldi	r21, 0x41	; 65
     6de:	f4 d7       	rcall	.+4072   	; 0x16c8 <__divsf3>

	//If read successfully
	if (status == DHT_Ok)
	{
		//Calculate values
		*Temperature = ExtractTemperature(data[2], data[3]);
     6e0:	f8 01       	movw	r30, r16
     6e2:	60 83       	st	Z, r22
     6e4:	71 83       	std	Z+1, r23	; 0x01
     6e6:	82 83       	std	Z+2, r24	; 0x02
     6e8:	93 83       	std	Z+3, r25	; 0x03

	#if (DHT_Type == DHT11)
		hum = Data0;
	#elif (DHT_Type == DHT22)
		//(Integral<<8 + Decimal) / 10
		hum = ((Data0<<8) | Data1) / 10.0;
     6ea:	69 81       	ldd	r22, Y+1	; 0x01
     6ec:	70 e0       	ldi	r23, 0x00	; 0
     6ee:	76 2f       	mov	r23, r22
     6f0:	66 27       	eor	r22, r22
     6f2:	8a 81       	ldd	r24, Y+2	; 0x02
     6f4:	68 2b       	or	r22, r24
     6f6:	07 2e       	mov	r0, r23
     6f8:	00 0c       	add	r0, r0
     6fa:	88 0b       	sbc	r24, r24
     6fc:	99 0b       	sbc	r25, r25
     6fe:	7f d8       	rcall	.-3842   	; 0xfffff7fe <__eeprom_end+0xff7ef7fe>
     700:	20 e0       	ldi	r18, 0x00	; 0
     702:	30 e0       	ldi	r19, 0x00	; 0
     704:	40 e2       	ldi	r20, 0x20	; 32
     706:	51 e4       	ldi	r21, 0x41	; 65
     708:	df d7       	rcall	.+4030   	; 0x16c8 <__divsf3>
     70a:	4b 01       	movw	r8, r22
     70c:	5c 01       	movw	r10, r24
	//If read successfully
	if (status == DHT_Ok)
	{
		//Calculate values
		*Temperature = ExtractTemperature(data[2], data[3]);
		*Humidity = ExtractHumidity(data[0], data[1]);
     70e:	f7 01       	movw	r30, r14
     710:	60 83       	st	Z, r22
     712:	71 83       	std	Z+1, r23	; 0x01
     714:	82 83       	std	Z+2, r24	; 0x02
     716:	93 83       	std	Z+3, r25	; 0x03

		//Check values
		if ((*Temperature < __DHT_Temperature_Min) || (*Temperature > __DHT_Temperature_Max))
     718:	f8 01       	movw	r30, r16
     71a:	c0 80       	ld	r12, Z
     71c:	d1 80       	ldd	r13, Z+1	; 0x01
     71e:	e2 80       	ldd	r14, Z+2	; 0x02
     720:	f3 80       	ldd	r15, Z+3	; 0x03
     722:	20 e0       	ldi	r18, 0x00	; 0
     724:	30 e0       	ldi	r19, 0x00	; 0
     726:	40 e2       	ldi	r20, 0x20	; 32
     728:	52 ec       	ldi	r21, 0xC2	; 194
     72a:	c7 01       	movw	r24, r14
     72c:	b6 01       	movw	r22, r12
     72e:	c8 d7       	rcall	.+3984   	; 0x16c0 <__cmpsf2>
     730:	88 23       	and	r24, r24
     732:	4c f0       	brlt	.+18     	; 0x746 <DHT_Read+0xd8>
     734:	20 e0       	ldi	r18, 0x00	; 0
     736:	30 e0       	ldi	r19, 0x00	; 0
     738:	40 ea       	ldi	r20, 0xA0	; 160
     73a:	52 e4       	ldi	r21, 0x42	; 66
     73c:	c7 01       	movw	r24, r14
     73e:	b6 01       	movw	r22, r12
     740:	0e d9       	rcall	.-3556   	; 0xfffff95e <__eeprom_end+0xff7ef95e>
     742:	18 16       	cp	r1, r24
     744:	24 f4       	brge	.+8      	; 0x74e <DHT_Read+0xe0>
			__DHT_STATUS = DHT_Error_Temperature;
     746:	82 e0       	ldi	r24, 0x02	; 2
     748:	80 93 88 01 	sts	0x0188, r24	; 0x800188 <__DHT_STATUS>
     74c:	14 c0       	rjmp	.+40     	; 0x776 <DHT_Read+0x108>
		else if ((*Humidity < __DHT_Humidity_Min) || (*Humidity > __DHT_Humidity_Max))
     74e:	20 e0       	ldi	r18, 0x00	; 0
     750:	30 e0       	ldi	r19, 0x00	; 0
     752:	a9 01       	movw	r20, r18
     754:	c5 01       	movw	r24, r10
     756:	b4 01       	movw	r22, r8
     758:	b3 d7       	rcall	.+3942   	; 0x16c0 <__cmpsf2>
     75a:	88 23       	and	r24, r24
     75c:	4c f0       	brlt	.+18     	; 0x770 <DHT_Read+0x102>
     75e:	20 e0       	ldi	r18, 0x00	; 0
     760:	30 e0       	ldi	r19, 0x00	; 0
     762:	48 ec       	ldi	r20, 0xC8	; 200
     764:	52 e4       	ldi	r21, 0x42	; 66
     766:	c5 01       	movw	r24, r10
     768:	b4 01       	movw	r22, r8
     76a:	f9 d8       	rcall	.-3598   	; 0xfffff95e <__eeprom_end+0xff7ef95e>
     76c:	18 16       	cp	r1, r24
     76e:	1c f4       	brge	.+6      	; 0x776 <DHT_Read+0x108>
			__DHT_STATUS = DHT_Error_Humidity;
     770:	81 e0       	ldi	r24, 0x01	; 1
     772:	80 93 88 01 	sts	0x0188, r24	; 0x800188 <__DHT_STATUS>
	}

	return DHT_GetStatus();
}
     776:	80 91 88 01 	lds	r24, 0x0188	; 0x800188 <__DHT_STATUS>
     77a:	0f 90       	pop	r0
     77c:	0f 90       	pop	r0
     77e:	0f 90       	pop	r0
     780:	0f 90       	pop	r0
     782:	df 91       	pop	r29
     784:	cf 91       	pop	r28
     786:	1f 91       	pop	r17
     788:	0f 91       	pop	r16
     78a:	ff 90       	pop	r15
     78c:	ef 90       	pop	r14
     78e:	df 90       	pop	r13
     790:	cf 90       	pop	r12
     792:	bf 90       	pop	r11
     794:	af 90       	pop	r10
     796:	9f 90       	pop	r9
     798:	8f 90       	pop	r8
     79a:	08 95       	ret

0000079c <ssd1306_start_command>:

void ssd1306tx_string(char *s) {
	while (*s) {
		ssd1306tx_char(*s++);
	}
}
     79c:	d6 d0       	rcall	.+428    	; 0x94a <I2C_start>
     79e:	88 e7       	ldi	r24, 0x78	; 120
     7a0:	90 e0       	ldi	r25, 0x00	; 0
     7a2:	e5 d0       	rcall	.+458    	; 0x96e <I2C_write>
     7a4:	80 e0       	ldi	r24, 0x00	; 0
     7a6:	90 e0       	ldi	r25, 0x00	; 0
     7a8:	e2 d0       	rcall	.+452    	; 0x96e <I2C_write>
     7aa:	08 95       	ret

000007ac <ssd1306_start_data>:
     7ac:	ce d0       	rcall	.+412    	; 0x94a <I2C_start>
     7ae:	88 e7       	ldi	r24, 0x78	; 120
     7b0:	90 e0       	ldi	r25, 0x00	; 0
     7b2:	dd d0       	rcall	.+442    	; 0x96e <I2C_write>
     7b4:	80 e4       	ldi	r24, 0x40	; 64
     7b6:	90 e0       	ldi	r25, 0x00	; 0
     7b8:	da d0       	rcall	.+436    	; 0x96e <I2C_write>
     7ba:	08 95       	ret

000007bc <ssd1306_init>:
     7bc:	0f 93       	push	r16
     7be:	1f 93       	push	r17
     7c0:	cf 93       	push	r28
     7c2:	df 93       	push	r29
     7c4:	eb df       	rcall	.-42     	; 0x79c <ssd1306_start_command>
     7c6:	c6 eb       	ldi	r28, 0xB6	; 182
     7c8:	d0 e0       	ldi	r29, 0x00	; 0
     7ca:	06 ed       	ldi	r16, 0xD6	; 214
     7cc:	10 e0       	ldi	r17, 0x00	; 0
     7ce:	fe 01       	movw	r30, r28
     7d0:	84 91       	lpm	r24, Z
     7d2:	90 e0       	ldi	r25, 0x00	; 0
     7d4:	cc d0       	rcall	.+408    	; 0x96e <I2C_write>
     7d6:	21 96       	adiw	r28, 0x01	; 1
     7d8:	c0 17       	cp	r28, r16
     7da:	d1 07       	cpc	r29, r17
     7dc:	c1 f7       	brne	.-16     	; 0x7ce <ssd1306_init+0x12>
     7de:	be d0       	rcall	.+380    	; 0x95c <I2C_stop>
     7e0:	df 91       	pop	r29
     7e2:	cf 91       	pop	r28
     7e4:	1f 91       	pop	r17
     7e6:	0f 91       	pop	r16
     7e8:	08 95       	ret

000007ea <ssd1306_setpos>:
     7ea:	cf 93       	push	r28
     7ec:	df 93       	push	r29
     7ee:	c8 2f       	mov	r28, r24
     7f0:	d6 2f       	mov	r29, r22
     7f2:	d4 df       	rcall	.-88     	; 0x79c <ssd1306_start_command>
     7f4:	d7 70       	andi	r29, 0x07	; 7
     7f6:	8d 2f       	mov	r24, r29
     7f8:	80 6b       	ori	r24, 0xB0	; 176
     7fa:	90 e0       	ldi	r25, 0x00	; 0
     7fc:	b8 d0       	rcall	.+368    	; 0x96e <I2C_write>
     7fe:	8c 2f       	mov	r24, r28
     800:	8f 70       	andi	r24, 0x0F	; 15
     802:	90 e0       	ldi	r25, 0x00	; 0
     804:	b4 d0       	rcall	.+360    	; 0x96e <I2C_write>
     806:	c2 95       	swap	r28
     808:	cf 70       	andi	r28, 0x0F	; 15
     80a:	8c 2f       	mov	r24, r28
     80c:	80 61       	ori	r24, 0x10	; 16
     80e:	90 e0       	ldi	r25, 0x00	; 0
     810:	ae d0       	rcall	.+348    	; 0x96e <I2C_write>
     812:	a4 d0       	rcall	.+328    	; 0x95c <I2C_stop>
     814:	df 91       	pop	r29
     816:	cf 91       	pop	r28
     818:	08 95       	ret

0000081a <ssd1306_stop>:
     81a:	a0 d0       	rcall	.+320    	; 0x95c <I2C_stop>
     81c:	08 95       	ret

0000081e <ssd1306_clear_display>:
     81e:	cf 93       	push	r28
     820:	df 93       	push	r29
     822:	d0 e0       	ldi	r29, 0x00	; 0
     824:	6d 2f       	mov	r22, r29
     826:	80 e0       	ldi	r24, 0x00	; 0
     828:	e0 df       	rcall	.-64     	; 0x7ea <ssd1306_setpos>
     82a:	c0 df       	rcall	.-128    	; 0x7ac <ssd1306_start_data>
     82c:	c0 e8       	ldi	r28, 0x80	; 128
     82e:	80 e0       	ldi	r24, 0x00	; 0
     830:	90 e0       	ldi	r25, 0x00	; 0
     832:	9d d0       	rcall	.+314    	; 0x96e <I2C_write>
     834:	c1 50       	subi	r28, 0x01	; 1
     836:	d9 f7       	brne	.-10     	; 0x82e <ssd1306_clear_display+0x10>
     838:	df 5f       	subi	r29, 0xFF	; 255
     83a:	d8 30       	cpi	r29, 0x08	; 8
     83c:	99 f7       	brne	.-26     	; 0x824 <ssd1306_clear_display+0x6>
     83e:	df 91       	pop	r29
     840:	cf 91       	pop	r28
     842:	08 95       	ret

00000844 <ssd1306tx_init>:
     844:	90 93 8b 01 	sts	0x018B, r25	; 0x80018b <ssd1306tx_font_src+0x1>
     848:	80 93 8a 01 	sts	0x018A, r24	; 0x80018a <ssd1306tx_font_src>
     84c:	60 93 89 01 	sts	0x0189, r22	; 0x800189 <ssd1306tx_font_char_base>
     850:	08 95       	ret

00000852 <ssd1306tx_stringxy>:

void ssd1306tx_stringxy(const uint8_t *fron_src, uint8_t x, uint8_t y, const char s[]) {
     852:	8f 92       	push	r8
     854:	9f 92       	push	r9
     856:	af 92       	push	r10
     858:	bf 92       	push	r11
     85a:	cf 92       	push	r12
     85c:	df 92       	push	r13
     85e:	ef 92       	push	r14
     860:	ff 92       	push	r15
     862:	0f 93       	push	r16
     864:	1f 93       	push	r17
     866:	cf 93       	push	r28
     868:	df 93       	push	r29
     86a:	6c 01       	movw	r12, r24
     86c:	96 2e       	mov	r9, r22
     86e:	84 2e       	mov	r8, r20
	uint16_t j, k = 0;
	while (s[k] != '\0') {
     870:	f9 01       	movw	r30, r18
     872:	a0 80       	ld	r10, Z
     874:	aa 20       	and	r10, r10
     876:	09 f4       	brne	.+2      	; 0x87a <ssd1306tx_stringxy+0x28>
     878:	44 c0       	rjmp	.+136    	; 0x902 <ssd1306tx_stringxy+0xb0>
     87a:	79 01       	movw	r14, r18
     87c:	ff ef       	ldi	r31, 0xFF	; 255
     87e:	ef 1a       	sub	r14, r31
     880:	ff 0a       	sbc	r15, r31
		j = s[k] * 16 - (32 * 16); // Convert ASCII code to font data index. NOTE: (x*16) already optimized to (x<<4).
     882:	b1 2c       	mov	r11, r1
     884:	80 e2       	ldi	r24, 0x20	; 32
     886:	a8 1a       	sub	r10, r24
     888:	b1 08       	sbc	r11, r1
     88a:	aa 0c       	add	r10, r10
     88c:	bb 1c       	adc	r11, r11
     88e:	aa 0c       	add	r10, r10
     890:	bb 1c       	adc	r11, r11
     892:	aa 0c       	add	r10, r10
     894:	bb 1c       	adc	r11, r11
     896:	aa 0c       	add	r10, r10
     898:	bb 1c       	adc	r11, r11
		if (x > 120) {
     89a:	e8 e7       	ldi	r30, 0x78	; 120
     89c:	e9 15       	cp	r30, r9
     89e:	10 f4       	brcc	.+4      	; 0x8a4 <ssd1306tx_stringxy+0x52>
			x = 0;    // Go to the next line.
			y++;
     8a0:	83 94       	inc	r8
void ssd1306tx_stringxy(const uint8_t *fron_src, uint8_t x, uint8_t y, const char s[]) {
	uint16_t j, k = 0;
	while (s[k] != '\0') {
		j = s[k] * 16 - (32 * 16); // Convert ASCII code to font data index. NOTE: (x*16) already optimized to (x<<4).
		if (x > 120) {
			x = 0;    // Go to the next line.
     8a2:	91 2c       	mov	r9, r1
			y++;
		}
		ssd1306_setpos(x, y);
     8a4:	68 2d       	mov	r22, r8
     8a6:	89 2d       	mov	r24, r9
     8a8:	a0 df       	rcall	.-192    	; 0x7ea <ssd1306_setpos>
		ssd1306_start_data();
     8aa:	80 df       	rcall	.-256    	; 0x7ac <ssd1306_start_data>
     8ac:	86 01       	movw	r16, r12
     8ae:	0a 0d       	add	r16, r10
     8b0:	1b 1d       	adc	r17, r11
     8b2:	e5 01       	movw	r28, r10
     8b4:	28 96       	adiw	r28, 0x08	; 8
     8b6:	cc 0d       	add	r28, r12
     8b8:	dd 1d       	adc	r29, r13
		for (uint8_t i = 0; i < 8; i++) {
			ssd1306_data_byte(pgm_read_byte(&fron_src[j + i]));
     8ba:	f8 01       	movw	r30, r16
     8bc:	84 91       	lpm	r24, Z
	}
	I2C_stop();	// Finish transmission
}

void ssd1306_data_byte(uint8_t b) {
	I2C_write(b);
     8be:	90 e0       	ldi	r25, 0x00	; 0
     8c0:	56 d0       	rcall	.+172    	; 0x96e <I2C_write>
     8c2:	0f 5f       	subi	r16, 0xFF	; 255
     8c4:	1f 4f       	sbci	r17, 0xFF	; 255
			x = 0;    // Go to the next line.
			y++;
		}
		ssd1306_setpos(x, y);
		ssd1306_start_data();
		for (uint8_t i = 0; i < 8; i++) {
     8c6:	0c 17       	cp	r16, r28
     8c8:	1d 07       	cpc	r17, r29
     8ca:	b9 f7       	brne	.-18     	; 0x8ba <ssd1306tx_stringxy+0x68>
void ssd1306_data_byte(uint8_t b) {
	I2C_write(b);
}

void ssd1306_stop(void) {
	I2C_stop();
     8cc:	47 d0       	rcall	.+142    	; 0x95c <I2C_stop>
		ssd1306_start_data();
		for (uint8_t i = 0; i < 8; i++) {
			ssd1306_data_byte(pgm_read_byte(&fron_src[j + i]));
		}
		ssd1306_stop();
		ssd1306_setpos(x, y + 1);
     8ce:	61 e0       	ldi	r22, 0x01	; 1
     8d0:	68 0d       	add	r22, r8
     8d2:	89 2d       	mov	r24, r9
     8d4:	8a df       	rcall	.-236    	; 0x7ea <ssd1306_setpos>
		ssd1306_start_data();
     8d6:	6a df       	rcall	.-300    	; 0x7ac <ssd1306_start_data>
     8d8:	85 01       	movw	r16, r10
     8da:	00 5f       	subi	r16, 0xF0	; 240
     8dc:	1f 4f       	sbci	r17, 0xFF	; 255
     8de:	0c 0d       	add	r16, r12
     8e0:	1d 1d       	adc	r17, r13
		for (uint8_t i = 0; i < 8; i++) {
			ssd1306_data_byte(pgm_read_byte(&fron_src[j + i + 8]));
     8e2:	fe 01       	movw	r30, r28
     8e4:	84 91       	lpm	r24, Z
	}
	I2C_stop();	// Finish transmission
}

void ssd1306_data_byte(uint8_t b) {
	I2C_write(b);
     8e6:	90 e0       	ldi	r25, 0x00	; 0
     8e8:	42 d0       	rcall	.+132    	; 0x96e <I2C_write>
     8ea:	21 96       	adiw	r28, 0x01	; 1
			ssd1306_data_byte(pgm_read_byte(&fron_src[j + i]));
		}
		ssd1306_stop();
		ssd1306_setpos(x, y + 1);
		ssd1306_start_data();
		for (uint8_t i = 0; i < 8; i++) {
     8ec:	c0 17       	cp	r28, r16
     8ee:	d1 07       	cpc	r29, r17
     8f0:	c1 f7       	brne	.-16     	; 0x8e2 <ssd1306tx_stringxy+0x90>
void ssd1306_data_byte(uint8_t b) {
	I2C_write(b);
}

void ssd1306_stop(void) {
	I2C_stop();
     8f2:	34 d0       	rcall	.+104    	; 0x95c <I2C_stop>
		ssd1306_start_data();
		for (uint8_t i = 0; i < 8; i++) {
			ssd1306_data_byte(pgm_read_byte(&fron_src[j + i + 8]));
		}
		ssd1306_stop();
		x += 8;
     8f4:	f8 e0       	ldi	r31, 0x08	; 8
     8f6:	9f 0e       	add	r9, r31
	}
}

void ssd1306tx_stringxy(const uint8_t *fron_src, uint8_t x, uint8_t y, const char s[]) {
	uint16_t j, k = 0;
	while (s[k] != '\0') {
     8f8:	f7 01       	movw	r30, r14
     8fa:	a1 90       	ld	r10, Z+
     8fc:	7f 01       	movw	r14, r30
     8fe:	a1 10       	cpse	r10, r1
     900:	c0 cf       	rjmp	.-128    	; 0x882 <ssd1306tx_stringxy+0x30>
		}
		ssd1306_stop();
		x += 8;
		k++;
	}
}
     902:	df 91       	pop	r29
     904:	cf 91       	pop	r28
     906:	1f 91       	pop	r17
     908:	0f 91       	pop	r16
     90a:	ff 90       	pop	r15
     90c:	ef 90       	pop	r14
     90e:	df 90       	pop	r13
     910:	cf 90       	pop	r12
     912:	bf 90       	pop	r11
     914:	af 90       	pop	r10
     916:	9f 90       	pop	r9
     918:	8f 90       	pop	r8
     91a:	08 95       	ret

0000091c <I2C_Initialize>:
#define LED5 (1<<PB0)
void I2C_Initialize(uint16_t bitRate_kHz)
{
	uint8_t bitrate_div;

	bitrate_div = ((F_CPU/1000l)/bitRate_kHz);
     91c:	9c 01       	movw	r18, r24
     91e:	40 e0       	ldi	r20, 0x00	; 0
     920:	50 e0       	ldi	r21, 0x00	; 0
     922:	60 e4       	ldi	r22, 0x40	; 64
     924:	7f e1       	ldi	r23, 0x1F	; 31
     926:	80 e0       	ldi	r24, 0x00	; 0
     928:	90 e0       	ldi	r25, 0x00	; 0
     92a:	f8 d9       	rcall	.-3088   	; 0xfffffd1c <__eeprom_end+0xff7efd1c>
     92c:	82 2f       	mov	r24, r18
	
	if(bitrate_div >= 16)
     92e:	20 31       	cpi	r18, 0x10	; 16
     930:	48 f0       	brcs	.+18     	; 0x944 <I2C_Initialize+0x28>
	bitrate_div = (bitrate_div-16)/2;
     932:	30 e0       	ldi	r19, 0x00	; 0
     934:	20 51       	subi	r18, 0x10	; 16
     936:	31 09       	sbc	r19, r1
     938:	c9 01       	movw	r24, r18
     93a:	99 23       	and	r25, r25
     93c:	0c f4       	brge	.+2      	; 0x940 <I2C_Initialize+0x24>
     93e:	01 96       	adiw	r24, 0x01	; 1
     940:	95 95       	asr	r25
     942:	87 95       	ror	r24
	
	TWBR = bitrate_div;
     944:	80 93 b8 00 	sts	0x00B8, r24	; 0x8000b8 <__DATA_REGION_ORIGIN__+0x58>
     948:	08 95       	ret

0000094a <I2C_start>:
}

void I2C_start(void){
	TWCR = (1<<TWINT) | (1<<TWEN) |( 1<<TWSTA);
     94a:	84 ea       	ldi	r24, 0xA4	; 164
     94c:	80 93 bc 00 	sts	0x00BC, r24	; 0x8000bc <__DATA_REGION_ORIGIN__+0x5c>
	while (! (TWCR & (1<<TWINT)));
     950:	ec eb       	ldi	r30, 0xBC	; 188
     952:	f0 e0       	ldi	r31, 0x00	; 0
     954:	80 81       	ld	r24, Z
     956:	88 23       	and	r24, r24
     958:	ec f7       	brge	.-6      	; 0x954 <I2C_start+0xa>
}
     95a:	08 95       	ret

0000095c <I2C_stop>:

void I2C_stop(void){
	TWCR = (1<<TWINT) | (1<<TWEN) | (1<<TWSTO);
     95c:	84 e9       	ldi	r24, 0x94	; 148
     95e:	80 93 bc 00 	sts	0x00BC, r24	; 0x8000bc <__DATA_REGION_ORIGIN__+0x5c>
	while (! (TWCR & (1<<TWSTO)));
     962:	ec eb       	ldi	r30, 0xBC	; 188
     964:	f0 e0       	ldi	r31, 0x00	; 0
     966:	80 81       	ld	r24, Z
     968:	84 ff       	sbrs	r24, 4
     96a:	fd cf       	rjmp	.-6      	; 0x966 <I2C_stop+0xa>
}
     96c:	08 95       	ret

0000096e <I2C_write>:

void I2C_write(uint8_t dane){
	TWDR = dane;
     96e:	80 93 bb 00 	sts	0x00BB, r24	; 0x8000bb <__DATA_REGION_ORIGIN__+0x5b>
	TWCR = (1<<TWINT) | (1<<TWEN);
     972:	84 e8       	ldi	r24, 0x84	; 132
     974:	80 93 bc 00 	sts	0x00BC, r24	; 0x8000bc <__DATA_REGION_ORIGIN__+0x5c>
	while (! (TWCR & (1<<TWINT)));
     978:	ec eb       	ldi	r30, 0xBC	; 188
     97a:	f0 e0       	ldi	r31, 0x00	; 0
     97c:	80 81       	ld	r24, Z
     97e:	88 23       	and	r24, r24
     980:	ec f7       	brge	.-6      	; 0x97c <I2C_write+0xe>
}
     982:	08 95       	ret

00000984 <play_alarm_sound>:
#include <util/delay.h>
#include "buzzer.h"

void play_alarm_sound()
{
	PORTD ^= BUZZER;
     984:	9b b1       	in	r25, 0x0b	; 11
     986:	80 e2       	ldi	r24, 0x20	; 32
     988:	89 27       	eor	r24, r25
     98a:	8b b9       	out	0x0b, r24	; 11
	#else
		//round up by default
		__ticks_dc = (uint32_t)(ceil(fabs(__tmp)));
	#endif

	__builtin_avr_delay_cycles(__ticks_dc);
     98c:	2f ef       	ldi	r18, 0xFF	; 255
     98e:	81 ee       	ldi	r24, 0xE1	; 225
     990:	94 e0       	ldi	r25, 0x04	; 4
     992:	21 50       	subi	r18, 0x01	; 1
     994:	80 40       	sbci	r24, 0x00	; 0
     996:	90 40       	sbci	r25, 0x00	; 0
     998:	e1 f7       	brne	.-8      	; 0x992 <play_alarm_sound+0xe>
     99a:	00 c0       	rjmp	.+0      	; 0x99c <play_alarm_sound+0x18>
     99c:	00 00       	nop
     99e:	08 95       	ret

000009a0 <play_timer_sound>:
	_delay_ms(200);
}

void play_timer_sound()
{
	PORTD ^= (BUZZER|LED1);
     9a0:	9b b1       	in	r25, 0x0b	; 11
     9a2:	80 ea       	ldi	r24, 0xA0	; 160
     9a4:	89 27       	eor	r24, r25
     9a6:	8b b9       	out	0x0b, r24	; 11
     9a8:	2f ef       	ldi	r18, 0xFF	; 255
     9aa:	80 e7       	ldi	r24, 0x70	; 112
     9ac:	92 e0       	ldi	r25, 0x02	; 2
     9ae:	21 50       	subi	r18, 0x01	; 1
     9b0:	80 40       	sbci	r24, 0x00	; 0
     9b2:	90 40       	sbci	r25, 0x00	; 0
     9b4:	e1 f7       	brne	.-8      	; 0x9ae <play_timer_sound+0xe>
     9b6:	00 c0       	rjmp	.+0      	; 0x9b8 <play_timer_sound+0x18>
     9b8:	00 00       	nop
     9ba:	08 95       	ret

000009bc <display_init>:
#include "../External/display.h"
#include "display_extensions.h"

void display_init()
{
	I2C_Initialize(100);
     9bc:	84 e6       	ldi	r24, 0x64	; 100
     9be:	90 e0       	ldi	r25, 0x00	; 0
     9c0:	ad df       	rcall	.-166    	; 0x91c <I2C_Initialize>
	ssd1306_init();
     9c2:	fc de       	rcall	.-520    	; 0x7bc <ssd1306_init>
	ssd1306tx_init(ssd1306xled_font8x16data, ' ');
     9c4:	60 e2       	ldi	r22, 0x20	; 32
     9c6:	86 ed       	ldi	r24, 0xD6	; 214
     9c8:	90 e0       	ldi	r25, 0x00	; 0
     9ca:	3c df       	rcall	.-392    	; 0x844 <ssd1306tx_init>
	ssd1306_start_command();
     9cc:	e7 de       	rcall	.-562    	; 0x79c <ssd1306_start_command>
	I2C_write(0xA6);
     9ce:	86 ea       	ldi	r24, 0xA6	; 166
     9d0:	90 e0       	ldi	r25, 0x00	; 0
     9d2:	cd df       	rcall	.-102    	; 0x96e <I2C_write>
	ssd1306_stop();
     9d4:	22 df       	rcall	.-444    	; 0x81a <ssd1306_stop>
	ssd1306_clear_display();
     9d6:	23 df       	rcall	.-442    	; 0x81e <ssd1306_clear_display>
     9d8:	08 95       	ret

000009da <draw_string>:
}

void draw_string(uint8_t xstart, uint8_t ystart, char* str)
{
     9da:	9a 01       	movw	r18, r20
	ssd1306tx_stringxy(ssd1306xled_font8x16data, xstart, ystart, str);
     9dc:	46 2f       	mov	r20, r22
     9de:	68 2f       	mov	r22, r24
     9e0:	86 ed       	ldi	r24, 0xD6	; 214
     9e2:	90 e0       	ldi	r25, 0x00	; 0
     9e4:	36 df       	rcall	.-404    	; 0x852 <ssd1306tx_stringxy>
     9e6:	08 95       	ret

000009e8 <reverse>:
}

void reverse(char* str, int len)
{
	int i = 0, j = len - 1, temp;
     9e8:	9b 01       	movw	r18, r22
     9ea:	21 50       	subi	r18, 0x01	; 1
     9ec:	31 09       	sbc	r19, r1
	while (i < j) {
     9ee:	12 16       	cp	r1, r18
     9f0:	13 06       	cpc	r1, r19
     9f2:	84 f4       	brge	.+32     	; 0xa14 <reverse+0x2c>
     9f4:	fc 01       	movw	r30, r24
     9f6:	e6 0f       	add	r30, r22
     9f8:	f7 1f       	adc	r31, r23
     9fa:	dc 01       	movw	r26, r24
     9fc:	80 e0       	ldi	r24, 0x00	; 0
     9fe:	90 e0       	ldi	r25, 0x00	; 0
		temp = str[i];
     a00:	4c 91       	ld	r20, X
		str[i] = str[j];
     a02:	52 91       	ld	r21, -Z
     a04:	5d 93       	st	X+, r21
		str[j] = temp;
     a06:	40 83       	st	Z, r20
		i++;
     a08:	01 96       	adiw	r24, 0x01	; 1
		j--;
     a0a:	21 50       	subi	r18, 0x01	; 1
     a0c:	31 09       	sbc	r19, r1
}

void reverse(char* str, int len)
{
	int i = 0, j = len - 1, temp;
	while (i < j) {
     a0e:	82 17       	cp	r24, r18
     a10:	93 07       	cpc	r25, r19
     a12:	b4 f3       	brlt	.-20     	; 0xa00 <reverse+0x18>
     a14:	08 95       	ret

00000a16 <intToStr>:
		j--;
	}
}

int intToStr(int x, char str[], int d)
{
     a16:	cf 92       	push	r12
     a18:	df 92       	push	r13
     a1a:	ef 92       	push	r14
     a1c:	ff 92       	push	r15
     a1e:	0f 93       	push	r16
     a20:	1f 93       	push	r17
     a22:	cf 93       	push	r28
     a24:	df 93       	push	r29
     a26:	6b 01       	movw	r12, r22
     a28:	8a 01       	movw	r16, r20
	int i = 0;
	while (x) {
     a2a:	00 97       	sbiw	r24, 0x00	; 0
     a2c:	91 f0       	breq	.+36     	; 0xa52 <intToStr+0x3c>
     a2e:	eb 01       	movw	r28, r22
     a30:	e0 e0       	ldi	r30, 0x00	; 0
     a32:	f0 e0       	ldi	r31, 0x00	; 0
		str[i++] = (x % 10) + '0';
     a34:	0f 2e       	mov	r0, r31
     a36:	fa e0       	ldi	r31, 0x0A	; 10
     a38:	ef 2e       	mov	r14, r31
     a3a:	f1 2c       	mov	r15, r1
     a3c:	f0 2d       	mov	r31, r0
     a3e:	31 96       	adiw	r30, 0x01	; 1
     a40:	b7 01       	movw	r22, r14
     a42:	59 d9       	rcall	.-3406   	; 0xfffffcf6 <__eeprom_end+0xff7efcf6>
     a44:	80 5d       	subi	r24, 0xD0	; 208
     a46:	89 93       	st	Y+, r24
		x = x / 10;
     a48:	86 2f       	mov	r24, r22
     a4a:	97 2f       	mov	r25, r23
}

int intToStr(int x, char str[], int d)
{
	int i = 0;
	while (x) {
     a4c:	00 97       	sbiw	r24, 0x00	; 0
     a4e:	b9 f7       	brne	.-18     	; 0xa3e <intToStr+0x28>
     a50:	02 c0       	rjmp	.+4      	; 0xa56 <intToStr+0x40>
	}
}

int intToStr(int x, char str[], int d)
{
	int i = 0;
     a52:	e0 e0       	ldi	r30, 0x00	; 0
     a54:	f0 e0       	ldi	r31, 0x00	; 0
	while (x) {
		str[i++] = (x % 10) + '0';
		x = x / 10;
	}
	
	while (i < d)
     a56:	e0 17       	cp	r30, r16
     a58:	f1 07       	cpc	r31, r17
     a5a:	5c f4       	brge	.+22     	; 0xa72 <intToStr+0x5c>
     a5c:	ec 0d       	add	r30, r12
     a5e:	fd 1d       	adc	r31, r13
     a60:	96 01       	movw	r18, r12
     a62:	20 0f       	add	r18, r16
     a64:	31 1f       	adc	r19, r17
	str[i++] = '0';
     a66:	80 e3       	ldi	r24, 0x30	; 48
     a68:	81 93       	st	Z+, r24
	while (x) {
		str[i++] = (x % 10) + '0';
		x = x / 10;
	}
	
	while (i < d)
     a6a:	e2 17       	cp	r30, r18
     a6c:	f3 07       	cpc	r31, r19
     a6e:	e1 f7       	brne	.-8      	; 0xa68 <intToStr+0x52>
     a70:	01 c0       	rjmp	.+2      	; 0xa74 <intToStr+0x5e>
     a72:	8f 01       	movw	r16, r30
	str[i++] = '0';
	
	reverse(str, i);
     a74:	b8 01       	movw	r22, r16
     a76:	c6 01       	movw	r24, r12
     a78:	b7 df       	rcall	.-146    	; 0x9e8 <reverse>
	str[i] = '\0';
     a7a:	e6 01       	movw	r28, r12
     a7c:	c0 0f       	add	r28, r16
     a7e:	d1 1f       	adc	r29, r17
     a80:	18 82       	st	Y, r1
	return i;
}
     a82:	c8 01       	movw	r24, r16
     a84:	df 91       	pop	r29
     a86:	cf 91       	pop	r28
     a88:	1f 91       	pop	r17
     a8a:	0f 91       	pop	r16
     a8c:	ff 90       	pop	r15
     a8e:	ef 90       	pop	r14
     a90:	df 90       	pop	r13
     a92:	cf 90       	pop	r12
     a94:	08 95       	ret

00000a96 <ftoa>:

void ftoa(float n, char* res, int afterpoint)
{
     a96:	2f 92       	push	r2
     a98:	3f 92       	push	r3
     a9a:	4f 92       	push	r4
     a9c:	5f 92       	push	r5
     a9e:	6f 92       	push	r6
     aa0:	7f 92       	push	r7
     aa2:	8f 92       	push	r8
     aa4:	9f 92       	push	r9
     aa6:	af 92       	push	r10
     aa8:	bf 92       	push	r11
     aaa:	cf 92       	push	r12
     aac:	df 92       	push	r13
     aae:	ef 92       	push	r14
     ab0:	ff 92       	push	r15
     ab2:	0f 93       	push	r16
     ab4:	1f 93       	push	r17
     ab6:	cf 93       	push	r28
     ab8:	df 93       	push	r29
     aba:	4b 01       	movw	r8, r22
     abc:	5c 01       	movw	r10, r24
     abe:	8a 01       	movw	r16, r20
     ac0:	e9 01       	movw	r28, r18
	int ipart = (int)n;
     ac2:	6a d6       	rcall	.+3284   	; 0x1798 <__fixsfsi>
     ac4:	6b 01       	movw	r12, r22
     ac6:	7c 01       	movw	r14, r24
	float fpart = n - (float)ipart;
	int i = intToStr(ipart, res, 0);
     ac8:	40 e0       	ldi	r20, 0x00	; 0
     aca:	50 e0       	ldi	r21, 0x00	; 0
     acc:	b8 01       	movw	r22, r16
     ace:	c6 01       	movw	r24, r12
     ad0:	a2 df       	rcall	.-188    	; 0xa16 <intToStr>
     ad2:	1c 01       	movw	r2, r24
	
	if (afterpoint != 0) {
     ad4:	20 97       	sbiw	r28, 0x00	; 0
     ad6:	61 f1       	breq	.+88     	; 0xb30 <ftoa+0x9a>
		res[i] = '.';
     ad8:	f8 01       	movw	r30, r16
     ada:	e8 0f       	add	r30, r24
     adc:	f9 1f       	adc	r31, r25
     ade:	8e e2       	ldi	r24, 0x2E	; 46
     ae0:	80 83       	st	Z, r24
		fpart = fpart * pow(10, afterpoint);
     ae2:	be 01       	movw	r22, r28
     ae4:	0d 2e       	mov	r0, r29
     ae6:	00 0c       	add	r0, r0
     ae8:	88 0b       	sbc	r24, r24
     aea:	99 0b       	sbc	r25, r25
     aec:	88 d6       	rcall	.+3344   	; 0x17fe <__floatsisf>
     aee:	9b 01       	movw	r18, r22
     af0:	ac 01       	movw	r20, r24
     af2:	60 e0       	ldi	r22, 0x00	; 0
     af4:	70 e0       	ldi	r23, 0x00	; 0
     af6:	80 e2       	ldi	r24, 0x20	; 32
     af8:	91 e4       	ldi	r25, 0x41	; 65
     afa:	98 d7       	rcall	.+3888   	; 0x1a2c <pow>
     afc:	2b 01       	movw	r4, r22
     afe:	3c 01       	movw	r6, r24
}

void ftoa(float n, char* res, int afterpoint)
{
	int ipart = (int)n;
	float fpart = n - (float)ipart;
     b00:	b6 01       	movw	r22, r12
     b02:	dd 0c       	add	r13, r13
     b04:	88 0b       	sbc	r24, r24
     b06:	99 0b       	sbc	r25, r25
     b08:	7a d6       	rcall	.+3316   	; 0x17fe <__floatsisf>
     b0a:	9b 01       	movw	r18, r22
     b0c:	ac 01       	movw	r20, r24
     b0e:	c5 01       	movw	r24, r10
     b10:	b4 01       	movw	r22, r8
     b12:	71 d5       	rcall	.+2786   	; 0x15f6 <__subsf3>
	int i = intToStr(ipart, res, 0);
	
	if (afterpoint != 0) {
		res[i] = '.';
		fpart = fpart * pow(10, afterpoint);
		intToStr((int)fpart, res + i + 1, afterpoint);
     b14:	2f ef       	ldi	r18, 0xFF	; 255
     b16:	22 1a       	sub	r2, r18
     b18:	32 0a       	sbc	r3, r18
     b1a:	02 0d       	add	r16, r2
     b1c:	13 1d       	adc	r17, r3
     b1e:	a3 01       	movw	r20, r6
     b20:	92 01       	movw	r18, r4
     b22:	21 d7       	rcall	.+3650   	; 0x1966 <__mulsf3>
     b24:	39 d6       	rcall	.+3186   	; 0x1798 <__fixsfsi>
     b26:	dc 01       	movw	r26, r24
     b28:	cb 01       	movw	r24, r22
     b2a:	ae 01       	movw	r20, r28
     b2c:	b8 01       	movw	r22, r16
     b2e:	73 df       	rcall	.-282    	; 0xa16 <intToStr>
	}
}
     b30:	df 91       	pop	r29
     b32:	cf 91       	pop	r28
     b34:	1f 91       	pop	r17
     b36:	0f 91       	pop	r16
     b38:	ff 90       	pop	r15
     b3a:	ef 90       	pop	r14
     b3c:	df 90       	pop	r13
     b3e:	cf 90       	pop	r12
     b40:	bf 90       	pop	r11
     b42:	af 90       	pop	r10
     b44:	9f 90       	pop	r9
     b46:	8f 90       	pop	r8
     b48:	7f 90       	pop	r7
     b4a:	6f 90       	pop	r6
     b4c:	5f 90       	pop	r5
     b4e:	4f 90       	pop	r4
     b50:	3f 90       	pop	r3
     b52:	2f 90       	pop	r2
     b54:	08 95       	ret

00000b56 <draw_number>:

void draw_number(uint8_t xstart, uint8_t ystart, uint8_t number)
{
     b56:	0f 93       	push	r16
     b58:	1f 93       	push	r17
     b5a:	cf 93       	push	r28
     b5c:	df 93       	push	r29
     b5e:	00 d0       	rcall	.+0      	; 0xb60 <draw_number+0xa>
     b60:	1f 92       	push	r1
     b62:	cd b7       	in	r28, 0x3d	; 61
     b64:	de b7       	in	r29, 0x3e	; 62
     b66:	18 2f       	mov	r17, r24
     b68:	06 2f       	mov	r16, r22
     b6a:	84 2f       	mov	r24, r20
	char number_as_char[3];
	
	if(number < 10)
     b6c:	4a 30       	cpi	r20, 0x0A	; 10
     b6e:	60 f4       	brcc	.+24     	; 0xb88 <draw_number+0x32>
	{
		intToStr(number, number_as_char, 1);
     b70:	41 e0       	ldi	r20, 0x01	; 1
     b72:	50 e0       	ldi	r21, 0x00	; 0
     b74:	be 01       	movw	r22, r28
     b76:	6f 5f       	subi	r22, 0xFF	; 255
     b78:	7f 4f       	sbci	r23, 0xFF	; 255
     b7a:	90 e0       	ldi	r25, 0x00	; 0
     b7c:	4c df       	rcall	.-360    	; 0xa16 <intToStr>
		number_as_char[1] = number_as_char[0];
     b7e:	89 81       	ldd	r24, Y+1	; 0x01
     b80:	8a 83       	std	Y+2, r24	; 0x02
		number_as_char[0] = '0';
     b82:	80 e3       	ldi	r24, 0x30	; 48
     b84:	89 83       	std	Y+1, r24	; 0x01
     b86:	07 c0       	rjmp	.+14     	; 0xb96 <draw_number+0x40>
	}
	else
	{
		intToStr(number, number_as_char, 2);
     b88:	42 e0       	ldi	r20, 0x02	; 2
     b8a:	50 e0       	ldi	r21, 0x00	; 0
     b8c:	be 01       	movw	r22, r28
     b8e:	6f 5f       	subi	r22, 0xFF	; 255
     b90:	7f 4f       	sbci	r23, 0xFF	; 255
     b92:	90 e0       	ldi	r25, 0x00	; 0
     b94:	40 df       	rcall	.-384    	; 0xa16 <intToStr>
	}

	number_as_char[2] = '\0';
     b96:	1b 82       	std	Y+3, r1	; 0x03
	
	draw_string(xstart, ystart, number_as_char);
     b98:	ae 01       	movw	r20, r28
     b9a:	4f 5f       	subi	r20, 0xFF	; 255
     b9c:	5f 4f       	sbci	r21, 0xFF	; 255
     b9e:	60 2f       	mov	r22, r16
     ba0:	81 2f       	mov	r24, r17
     ba2:	1b df       	rcall	.-458    	; 0x9da <draw_string>
}
     ba4:	0f 90       	pop	r0
     ba6:	0f 90       	pop	r0
     ba8:	0f 90       	pop	r0
     baa:	df 91       	pop	r29
     bac:	cf 91       	pop	r28
     bae:	1f 91       	pop	r17
     bb0:	0f 91       	pop	r16
     bb2:	08 95       	ret

00000bb4 <draw_clock>:

void draw_clock(uint8_t xstart, uint8_t ystart, uint8_t hours, uint8_t minutes, uint8_t seconds, bool displayHour, bool displayMinute, bool displaySecond)
{
     bb4:	af 92       	push	r10
     bb6:	cf 92       	push	r12
     bb8:	ef 92       	push	r14
     bba:	0f 93       	push	r16
     bbc:	1f 93       	push	r17
     bbe:	cf 93       	push	r28
     bc0:	df 93       	push	r29
     bc2:	c8 2f       	mov	r28, r24
     bc4:	d6 2f       	mov	r29, r22
     bc6:	12 2f       	mov	r17, r18
	if(displayHour == 1)
     bc8:	e1 10       	cpse	r14, r1
	{
		draw_number(xstart,ystart, hours);
     bca:	c5 df       	rcall	.-118    	; 0xb56 <draw_number>
	}
	
	draw_string(xstart +20, ystart, ":");
     bcc:	41 e0       	ldi	r20, 0x01	; 1
     bce:	51 e0       	ldi	r21, 0x01	; 1
     bd0:	6d 2f       	mov	r22, r29
     bd2:	84 e1       	ldi	r24, 0x14	; 20
     bd4:	8c 0f       	add	r24, r28
     bd6:	01 df       	rcall	.-510    	; 0x9da <draw_string>
	
	if(displayMinute == 1)
     bd8:	cc 20       	and	r12, r12
     bda:	29 f0       	breq	.+10     	; 0xbe6 <draw_clock+0x32>
	{
		draw_number(xstart + 30, ystart, minutes);
     bdc:	41 2f       	mov	r20, r17
     bde:	6d 2f       	mov	r22, r29
     be0:	8e e1       	ldi	r24, 0x1E	; 30
     be2:	8c 0f       	add	r24, r28
     be4:	b8 df       	rcall	.-144    	; 0xb56 <draw_number>
	}
	if(displaySecond == 1)
     be6:	aa 20       	and	r10, r10
     be8:	59 f0       	breq	.+22     	; 0xc00 <draw_clock+0x4c>
	{
		draw_string(xstart +50, ystart, ":");
     bea:	41 e0       	ldi	r20, 0x01	; 1
     bec:	51 e0       	ldi	r21, 0x01	; 1
     bee:	6d 2f       	mov	r22, r29
     bf0:	82 e3       	ldi	r24, 0x32	; 50
     bf2:	8c 0f       	add	r24, r28
     bf4:	f2 de       	rcall	.-540    	; 0x9da <draw_string>
		draw_number(xstart + 60, ystart,seconds);
     bf6:	40 2f       	mov	r20, r16
     bf8:	6d 2f       	mov	r22, r29
     bfa:	8c e3       	ldi	r24, 0x3C	; 60
     bfc:	8c 0f       	add	r24, r28
     bfe:	ab df       	rcall	.-170    	; 0xb56 <draw_number>
	}
}
     c00:	df 91       	pop	r29
     c02:	cf 91       	pop	r28
     c04:	1f 91       	pop	r17
     c06:	0f 91       	pop	r16
     c08:	ef 90       	pop	r14
     c0a:	cf 90       	pop	r12
     c0c:	af 90       	pop	r10
     c0e:	08 95       	ret

00000c10 <draw_its_time>:

void draw_its_time()
{
	draw_string(2,2,"IT IS TIME");
     c10:	43 e0       	ldi	r20, 0x03	; 3
     c12:	51 e0       	ldi	r21, 0x01	; 1
     c14:	62 e0       	ldi	r22, 0x02	; 2
     c16:	82 e0       	ldi	r24, 0x02	; 2
     c18:	e0 de       	rcall	.-576    	; 0x9da <draw_string>
	draw_string(2,4,"IT IS TIME");
     c1a:	43 e0       	ldi	r20, 0x03	; 3
     c1c:	51 e0       	ldi	r21, 0x01	; 1
     c1e:	64 e0       	ldi	r22, 0x04	; 4
     c20:	82 e0       	ldi	r24, 0x02	; 2
     c22:	db de       	rcall	.-586    	; 0x9da <draw_string>
	draw_string(2,6,"IT IS TIME");
     c24:	43 e0       	ldi	r20, 0x03	; 3
     c26:	51 e0       	ldi	r21, 0x01	; 1
     c28:	66 e0       	ldi	r22, 0x06	; 6
     c2a:	82 e0       	ldi	r24, 0x02	; 2
     c2c:	d6 de       	rcall	.-596    	; 0x9da <draw_string>
     c2e:	08 95       	ret

00000c30 <draw_header>:
}

draw_header(char* header, bool timer, bool alarm)
{
     c30:	cf 93       	push	r28
     c32:	df 93       	push	r29
     c34:	d6 2f       	mov	r29, r22
     c36:	c4 2f       	mov	r28, r20
	draw_string(0,0,header);
     c38:	ac 01       	movw	r20, r24
     c3a:	60 e0       	ldi	r22, 0x00	; 0
     c3c:	80 e0       	ldi	r24, 0x00	; 0
     c3e:	cd de       	rcall	.-614    	; 0x9da <draw_string>
	if(timer == 1)
     c40:	dd 23       	and	r29, r29
     c42:	29 f0       	breq	.+10     	; 0xc4e <draw_header+0x1e>
	{
		draw_string(110, 0, "-T");
     c44:	4e e0       	ldi	r20, 0x0E	; 14
     c46:	51 e0       	ldi	r21, 0x01	; 1
     c48:	60 e0       	ldi	r22, 0x00	; 0
     c4a:	8e e6       	ldi	r24, 0x6E	; 110
     c4c:	c6 de       	rcall	.-628    	; 0x9da <draw_string>
	}
	
	if(alarm == 1)
     c4e:	cc 23       	and	r28, r28
     c50:	29 f0       	breq	.+10     	; 0xc5c <draw_header+0x2c>
	{
		draw_string(90, 0, "-A");	
     c52:	41 e1       	ldi	r20, 0x11	; 17
     c54:	51 e0       	ldi	r21, 0x01	; 1
     c56:	60 e0       	ldi	r22, 0x00	; 0
     c58:	8a e5       	ldi	r24, 0x5A	; 90
     c5a:	bf de       	rcall	.-642    	; 0x9da <draw_string>
	}
     c5c:	df 91       	pop	r29
     c5e:	cf 91       	pop	r28
     c60:	08 95       	ret

00000c62 <refresh_screen>:
	_delay_ms(200);
}

void refresh_screen()
{
	if(timer_is_ready() == 1)
     c62:	06 d4       	rcall	.+2060   	; 0x1470 <timer_is_ready>
     c64:	88 23       	and	r24, r24
     c66:	11 f0       	breq	.+4      	; 0xc6c <refresh_screen+0xa>
	display_timer_view();
     c68:	90 d4       	rcall	.+2336   	; 0x158a <display_timer_view>
     c6a:	08 95       	ret
	else if (alarm_is_ready() == 1)
     c6c:	0b d2       	rcall	.+1046   	; 0x1084 <alarm_is_ready>
     c6e:	88 23       	and	r24, r24
     c70:	11 f0       	breq	.+4      	; 0xc76 <refresh_screen+0x14>
	display_alarm_view();
     c72:	73 d2       	rcall	.+1254   	; 0x115a <display_alarm_view>
     c74:	08 95       	ret
	else if(selectedMenu == MENU_CLOCK)
     c76:	80 91 00 01 	lds	r24, 0x0100	; 0x800100 <__data_start>
     c7a:	8a 30       	cpi	r24, 0x0A	; 10
     c7c:	11 f4       	brne	.+4      	; 0xc82 <refresh_screen+0x20>
	display_clock_view();
     c7e:	17 d3       	rcall	.+1582   	; 0x12ae <display_clock_view>
     c80:	08 95       	ret
	else if (selectedMenu == MENU_CLOCK_SET_HOUR)
     c82:	8b 30       	cpi	r24, 0x0B	; 11
     c84:	11 f4       	brne	.+4      	; 0xc8a <refresh_screen+0x28>
	display_clock_hour_set_view();
     c86:	3f d3       	rcall	.+1662   	; 0x1306 <display_clock_hour_set_view>
     c88:	08 95       	ret
	else if (selectedMenu == MENU_CLOCK_SET_MINUTE)
     c8a:	8c 30       	cpi	r24, 0x0C	; 12
     c8c:	11 f4       	brne	.+4      	; 0xc92 <refresh_screen+0x30>
	display_clock_minute_set_view();
     c8e:	65 d3       	rcall	.+1738   	; 0x135a <display_clock_minute_set_view>
     c90:	08 95       	ret
	else if (selectedMenu == MENU_TIMER)
     c92:	84 31       	cpi	r24, 0x14	; 20
     c94:	11 f4       	brne	.+4      	; 0xc9a <refresh_screen+0x38>
	display_timer_view();
     c96:	79 d4       	rcall	.+2290   	; 0x158a <display_timer_view>
     c98:	08 95       	ret
	else if (selectedMenu == MENU_TIMER_SET_HOUR)
     c9a:	85 31       	cpi	r24, 0x15	; 21
     c9c:	11 f4       	brne	.+4      	; 0xca2 <refresh_screen+0x40>
	display_timer_hour_set_view();
     c9e:	87 d4       	rcall	.+2318   	; 0x15ae <display_timer_hour_set_view>
     ca0:	08 95       	ret
	else if (selectedMenu == MENU_TIMER_SET_MINUTE)
     ca2:	86 31       	cpi	r24, 0x16	; 22
     ca4:	11 f4       	brne	.+4      	; 0xcaa <refresh_screen+0x48>
	display_timer_minute_set_view();
     ca6:	95 d4       	rcall	.+2346   	; 0x15d2 <display_timer_minute_set_view>
     ca8:	08 95       	ret
	else if (selectedMenu == MENU_TEMPEREATURE)
     caa:	88 32       	cpi	r24, 0x28	; 40
     cac:	11 f4       	brne	.+4      	; 0xcb2 <refresh_screen+0x50>
	display_temperature_view();
     cae:	7f d3       	rcall	.+1790   	; 0x13ae <display_temperature_view>
     cb0:	08 95       	ret
	else if (selectedMenu == MENU_ALARM)
     cb2:	8e 31       	cpi	r24, 0x1E	; 30
     cb4:	11 f4       	brne	.+4      	; 0xcba <refresh_screen+0x58>
	display_alarm_view();
     cb6:	51 d2       	rcall	.+1186   	; 0x115a <display_alarm_view>
     cb8:	08 95       	ret
	else if (selectedMenu == MENU_ALARM_SET_HOUR)
     cba:	8f 31       	cpi	r24, 0x1F	; 31
     cbc:	11 f4       	brne	.+4      	; 0xcc2 <refresh_screen+0x60>
	display_alarm_hour_set_view();
     cbe:	72 d2       	rcall	.+1252   	; 0x11a4 <display_alarm_hour_set_view>
     cc0:	08 95       	ret
	else if (selectedMenu == MENU_ALARM_SET_MINUTE)
     cc2:	80 32       	cpi	r24, 0x20	; 32
     cc4:	09 f4       	brne	.+2      	; 0xcc8 <refresh_screen+0x66>
	display_alarm_minute_set_view();
     cc6:	93 d2       	rcall	.+1318   	; 0x11ee <display_alarm_minute_set_view>
     cc8:	08 95       	ret

00000cca <clock_set_minute_confirm>:

}

void clock_set_minute_confirm()
{
	clock_save();
     cca:	d4 d2       	rcall	.+1448   	; 0x1274 <clock_save>
	selectedMenu = MENU_CLOCK;
     ccc:	8a e0       	ldi	r24, 0x0A	; 10
     cce:	80 93 00 01 	sts	0x0100, r24	; 0x800100 <__data_start>
     cd2:	08 95       	ret

00000cd4 <timer_view>:
}

void timer_view()
{
	if(timer_is_running() == 0)
     cd4:	d0 d3       	rcall	.+1952   	; 0x1476 <timer_is_running>
     cd6:	81 11       	cpse	r24, r1
     cd8:	01 c0       	rjmp	.+2      	; 0xcdc <timer_view+0x8>
	timer_reset();
     cda:	d0 d3       	rcall	.+1952   	; 0x147c <timer_reset>
	
	selectedMenu = MENU_TIMER;
     cdc:	84 e1       	ldi	r24, 0x14	; 20
     cde:	80 93 00 01 	sts	0x0100, r24	; 0x800100 <__data_start>
     ce2:	08 95       	ret

00000ce4 <timer_set_hour>:
}

void timer_set_hour()
{
	if(timer_is_running() == 1)
     ce4:	c8 d3       	rcall	.+1936   	; 0x1476 <timer_is_running>
     ce6:	81 11       	cpse	r24, r1
	timer_reset();
     ce8:	c9 d3       	rcall	.+1938   	; 0x147c <timer_reset>

	selectedMenu = MENU_TIMER_SET_HOUR;
     cea:	85 e1       	ldi	r24, 0x15	; 21
     cec:	80 93 00 01 	sts	0x0100, r24	; 0x800100 <__data_start>
     cf0:	08 95       	ret

00000cf2 <timer_set_minute_confirm>:
}

void timer_set_minute_confirm()
{
	timer_run();
     cf2:	d2 d3       	rcall	.+1956   	; 0x1498 <timer_run>
	timer_view();
     cf4:	ef df       	rcall	.-34     	; 0xcd4 <timer_view>
     cf6:	08 95       	ret

00000cf8 <alarm_view>:
}

void alarm_view()
{
	if(alarm_is_running() == 0)
     cf8:	c8 d1       	rcall	.+912    	; 0x108a <alarm_is_running>
     cfa:	81 11       	cpse	r24, r1
     cfc:	01 c0       	rjmp	.+2      	; 0xd00 <alarm_view+0x8>
	alarm_reset();
     cfe:	c8 d1       	rcall	.+912    	; 0x1090 <alarm_reset>
	
	selectedMenu = MENU_ALARM;
     d00:	8e e1       	ldi	r24, 0x1E	; 30
     d02:	80 93 00 01 	sts	0x0100, r24	; 0x800100 <__data_start>
     d06:	08 95       	ret

00000d08 <alarm_set_hour>:
}

void alarm_set_hour()
{
	if(alarm_is_running() == 1)
     d08:	c0 d1       	rcall	.+896    	; 0x108a <alarm_is_running>
     d0a:	81 11       	cpse	r24, r1
	alarm_reset();
     d0c:	c1 d1       	rcall	.+898    	; 0x1090 <alarm_reset>

	selectedMenu = MENU_ALARM_SET_HOUR;
     d0e:	8f e1       	ldi	r24, 0x1F	; 31
     d10:	80 93 00 01 	sts	0x0100, r24	; 0x800100 <__data_start>
     d14:	08 95       	ret

00000d16 <alarm_set_minute_confirm>:
}

void alarm_set_minute_confirm()
{
	alarm_run();
     d16:	ca d1       	rcall	.+916    	; 0x10ac <alarm_run>
	alarm_view();
     d18:	ef df       	rcall	.-34     	; 0xcf8 <alarm_view>
     d1a:	08 95       	ret

00000d1c <switch_menu>:
	display_alarm_minute_set_view();
}

void switch_menu()
{
	if(BUTTON_1_PRESSED && selectedMenu == MENU_CLOCK)
     d1c:	33 99       	sbic	0x06, 3	; 6
     d1e:	08 c0       	rjmp	.+16     	; 0xd30 <switch_menu+0x14>
     d20:	80 91 00 01 	lds	r24, 0x0100	; 0x800100 <__data_start>
     d24:	8a 30       	cpi	r24, 0x0A	; 10
     d26:	21 f4       	brne	.+8      	; 0xd30 <switch_menu+0x14>
	selectedMenu = MENU_CLOCK_SET_HOUR;
     d28:	8b e0       	ldi	r24, 0x0B	; 11
     d2a:	80 93 00 01 	sts	0x0100, r24	; 0x800100 <__data_start>
     d2e:	08 95       	ret

	else if (BUTTON_1_PRESSED && selectedMenu == MENU_CLOCK_SET_HOUR)
     d30:	33 99       	sbic	0x06, 3	; 6
     d32:	06 c0       	rjmp	.+12     	; 0xd40 <switch_menu+0x24>
     d34:	80 91 00 01 	lds	r24, 0x0100	; 0x800100 <__data_start>
     d38:	8b 30       	cpi	r24, 0x0B	; 11
     d3a:	11 f4       	brne	.+4      	; 0xd40 <switch_menu+0x24>
	add_hour();
     d3c:	33 d1       	rcall	.+614    	; 0xfa4 <add_hour>
     d3e:	08 95       	ret
	
	else if (BUTTON_2_PRESSED && selectedMenu == MENU_CLOCK_SET_HOUR)
     d40:	32 99       	sbic	0x06, 2	; 6
     d42:	07 c0       	rjmp	.+14     	; 0xd52 <switch_menu+0x36>
     d44:	80 91 00 01 	lds	r24, 0x0100	; 0x800100 <__data_start>
     d48:	8b 30       	cpi	r24, 0x0B	; 11
     d4a:	09 f0       	breq	.+2      	; 0xd4e <switch_menu+0x32>
     d4c:	f6 c0       	rjmp	.+492    	; 0xf3a <switch_menu+0x21e>
	subtract_hour();
     d4e:	3c d1       	rcall	.+632    	; 0xfc8 <subtract_hour>
     d50:	08 95       	ret
	
	else if(BUTTON_3_PRESSED && selectedMenu == MENU_CLOCK_SET_HOUR)
     d52:	1a 99       	sbic	0x03, 2	; 3
     d54:	09 c0       	rjmp	.+18     	; 0xd68 <switch_menu+0x4c>
     d56:	80 91 00 01 	lds	r24, 0x0100	; 0x800100 <__data_start>
     d5a:	8b 30       	cpi	r24, 0x0B	; 11
     d5c:	09 f0       	breq	.+2      	; 0xd60 <switch_menu+0x44>
     d5e:	e1 c0       	rjmp	.+450    	; 0xf22 <switch_menu+0x206>
	selectedMenu = MENU_CLOCK_SET_MINUTE;
     d60:	8c e0       	ldi	r24, 0x0C	; 12
     d62:	80 93 00 01 	sts	0x0100, r24	; 0x800100 <__data_start>
     d66:	08 95       	ret
	
	else if(BUTTON_4_PRESSED && selectedMenu == MENU_CLOCK_SET_HOUR)
     d68:	19 99       	sbic	0x03, 1	; 3
     d6a:	08 c0       	rjmp	.+16     	; 0xd7c <switch_menu+0x60>
     d6c:	80 91 00 01 	lds	r24, 0x0100	; 0x800100 <__data_start>
     d70:	8b 30       	cpi	r24, 0x0B	; 11
     d72:	21 f4       	brne	.+8      	; 0xd7c <switch_menu+0x60>
	selectedMenu = MENU_CLOCK;
     d74:	8a e0       	ldi	r24, 0x0A	; 10
     d76:	80 93 00 01 	sts	0x0100, r24	; 0x800100 <__data_start>
     d7a:	08 95       	ret

	else if (BUTTON_1_PRESSED && selectedMenu == MENU_CLOCK_SET_MINUTE)
     d7c:	33 99       	sbic	0x06, 3	; 6
     d7e:	06 c0       	rjmp	.+12     	; 0xd8c <switch_menu+0x70>
     d80:	80 91 00 01 	lds	r24, 0x0100	; 0x800100 <__data_start>
     d84:	8c 30       	cpi	r24, 0x0C	; 12
     d86:	11 f4       	brne	.+4      	; 0xd8c <switch_menu+0x70>
	add_minute();
     d88:	16 d1       	rcall	.+556    	; 0xfb6 <add_minute>
     d8a:	08 95       	ret
	
	else if (BUTTON_2_PRESSED && selectedMenu == MENU_CLOCK_SET_MINUTE)
     d8c:	32 99       	sbic	0x06, 2	; 6
     d8e:	07 c0       	rjmp	.+14     	; 0xd9e <switch_menu+0x82>
     d90:	80 91 00 01 	lds	r24, 0x0100	; 0x800100 <__data_start>
     d94:	8c 30       	cpi	r24, 0x0C	; 12
     d96:	09 f0       	breq	.+2      	; 0xd9a <switch_menu+0x7e>
     d98:	d3 c0       	rjmp	.+422    	; 0xf40 <switch_menu+0x224>
	subtract_minute();
     d9a:	1e d1       	rcall	.+572    	; 0xfd8 <subtract_minute>
     d9c:	08 95       	ret

	else if(BUTTON_3_PRESSED && selectedMenu == MENU_CLOCK_SET_MINUTE)
     d9e:	1a 99       	sbic	0x03, 2	; 3
     da0:	07 c0       	rjmp	.+14     	; 0xdb0 <switch_menu+0x94>
     da2:	80 91 00 01 	lds	r24, 0x0100	; 0x800100 <__data_start>
     da6:	8c 30       	cpi	r24, 0x0C	; 12
     da8:	09 f0       	breq	.+2      	; 0xdac <switch_menu+0x90>
     daa:	bd c0       	rjmp	.+378    	; 0xf26 <switch_menu+0x20a>
	clock_set_minute_confirm();
     dac:	8e df       	rcall	.-228    	; 0xcca <clock_set_minute_confirm>
     dae:	08 95       	ret
	
	else if(BUTTON_4_PRESSED && selectedMenu == MENU_CLOCK_SET_MINUTE)
     db0:	19 99       	sbic	0x03, 1	; 3
     db2:	08 c0       	rjmp	.+16     	; 0xdc4 <switch_menu+0xa8>
     db4:	80 91 00 01 	lds	r24, 0x0100	; 0x800100 <__data_start>
     db8:	8c 30       	cpi	r24, 0x0C	; 12
     dba:	21 f4       	brne	.+8      	; 0xdc4 <switch_menu+0xa8>
	selectedMenu = MENU_CLOCK_SET_HOUR;
     dbc:	8b e0       	ldi	r24, 0x0B	; 11
     dbe:	80 93 00 01 	sts	0x0100, r24	; 0x800100 <__data_start>
     dc2:	08 95       	ret
	
	else if (BUTTON_2_PRESSED && selectedMenu == MENU_TIMER)
     dc4:	32 99       	sbic	0x06, 2	; 6
     dc6:	06 c0       	rjmp	.+12     	; 0xdd4 <switch_menu+0xb8>
     dc8:	80 91 00 01 	lds	r24, 0x0100	; 0x800100 <__data_start>
     dcc:	84 31       	cpi	r24, 0x14	; 20
     dce:	11 f4       	brne	.+4      	; 0xdd4 <switch_menu+0xb8>
	timer_set_hour();
     dd0:	89 df       	rcall	.-238    	; 0xce4 <timer_set_hour>
     dd2:	08 95       	ret
	
	else if (BUTTON_1_PRESSED && selectedMenu == MENU_TIMER_SET_HOUR)
     dd4:	33 99       	sbic	0x06, 3	; 6
     dd6:	06 c0       	rjmp	.+12     	; 0xde4 <switch_menu+0xc8>
     dd8:	80 91 00 01 	lds	r24, 0x0100	; 0x800100 <__data_start>
     ddc:	85 31       	cpi	r24, 0x15	; 21
     dde:	11 f4       	brne	.+4      	; 0xde4 <switch_menu+0xc8>
	add_hour();
     de0:	e1 d0       	rcall	.+450    	; 0xfa4 <add_hour>
     de2:	08 95       	ret
	
	else if (BUTTON_2_PRESSED && selectedMenu == MENU_TIMER_SET_HOUR)
     de4:	32 99       	sbic	0x06, 2	; 6
     de6:	07 c0       	rjmp	.+14     	; 0xdf6 <switch_menu+0xda>
     de8:	80 91 00 01 	lds	r24, 0x0100	; 0x800100 <__data_start>
     dec:	85 31       	cpi	r24, 0x15	; 21
     dee:	09 f0       	breq	.+2      	; 0xdf2 <switch_menu+0xd6>
     df0:	aa c0       	rjmp	.+340    	; 0xf46 <switch_menu+0x22a>
	subtract_hour();
     df2:	ea d0       	rcall	.+468    	; 0xfc8 <subtract_hour>
     df4:	08 95       	ret

	else if(BUTTON_3_PRESSED && selectedMenu == MENU_TIMER_SET_HOUR)
     df6:	1a 99       	sbic	0x03, 2	; 3
     df8:	09 c0       	rjmp	.+18     	; 0xe0c <switch_menu+0xf0>
     dfa:	80 91 00 01 	lds	r24, 0x0100	; 0x800100 <__data_start>
     dfe:	85 31       	cpi	r24, 0x15	; 21
     e00:	09 f0       	breq	.+2      	; 0xe04 <switch_menu+0xe8>
     e02:	93 c0       	rjmp	.+294    	; 0xf2a <switch_menu+0x20e>
	selectedMenu = MENU_TIMER_SET_MINUTE;
     e04:	86 e1       	ldi	r24, 0x16	; 22
     e06:	80 93 00 01 	sts	0x0100, r24	; 0x800100 <__data_start>
     e0a:	08 95       	ret
	
	else if(BUTTON_4_PRESSED && selectedMenu == MENU_TIMER_SET_HOUR)
     e0c:	19 99       	sbic	0x03, 1	; 3
     e0e:	06 c0       	rjmp	.+12     	; 0xe1c <switch_menu+0x100>
     e10:	80 91 00 01 	lds	r24, 0x0100	; 0x800100 <__data_start>
     e14:	85 31       	cpi	r24, 0x15	; 21
     e16:	11 f4       	brne	.+4      	; 0xe1c <switch_menu+0x100>
	timer_view();
     e18:	5d df       	rcall	.-326    	; 0xcd4 <timer_view>
     e1a:	08 95       	ret

	else if (BUTTON_1_PRESSED && selectedMenu == MENU_TIMER_SET_MINUTE)
     e1c:	33 99       	sbic	0x06, 3	; 6
     e1e:	06 c0       	rjmp	.+12     	; 0xe2c <switch_menu+0x110>
     e20:	80 91 00 01 	lds	r24, 0x0100	; 0x800100 <__data_start>
     e24:	86 31       	cpi	r24, 0x16	; 22
     e26:	11 f4       	brne	.+4      	; 0xe2c <switch_menu+0x110>
	add_minute();
     e28:	c6 d0       	rcall	.+396    	; 0xfb6 <add_minute>
     e2a:	08 95       	ret
	
	else if (BUTTON_2_PRESSED && selectedMenu == MENU_TIMER_SET_MINUTE)
     e2c:	32 99       	sbic	0x06, 2	; 6
     e2e:	07 c0       	rjmp	.+14     	; 0xe3e <switch_menu+0x122>
     e30:	80 91 00 01 	lds	r24, 0x0100	; 0x800100 <__data_start>
     e34:	86 31       	cpi	r24, 0x16	; 22
     e36:	09 f0       	breq	.+2      	; 0xe3a <switch_menu+0x11e>
     e38:	89 c0       	rjmp	.+274    	; 0xf4c <switch_menu+0x230>
	subtract_minute();
     e3a:	ce d0       	rcall	.+412    	; 0xfd8 <subtract_minute>
     e3c:	08 95       	ret

	else if(BUTTON_3_PRESSED && selectedMenu == MENU_TIMER_SET_MINUTE)
     e3e:	1a 99       	sbic	0x03, 2	; 3
     e40:	07 c0       	rjmp	.+14     	; 0xe50 <switch_menu+0x134>
     e42:	80 91 00 01 	lds	r24, 0x0100	; 0x800100 <__data_start>
     e46:	86 31       	cpi	r24, 0x16	; 22
     e48:	09 f0       	breq	.+2      	; 0xe4c <switch_menu+0x130>
     e4a:	71 c0       	rjmp	.+226    	; 0xf2e <switch_menu+0x212>
	timer_set_minute_confirm();
     e4c:	52 df       	rcall	.-348    	; 0xcf2 <timer_set_minute_confirm>
     e4e:	08 95       	ret
	
	else if(BUTTON_4_PRESSED && selectedMenu == MENU_TIMER_SET_MINUTE)
     e50:	19 99       	sbic	0x03, 1	; 3
     e52:	06 c0       	rjmp	.+12     	; 0xe60 <switch_menu+0x144>
     e54:	80 91 00 01 	lds	r24, 0x0100	; 0x800100 <__data_start>
     e58:	86 31       	cpi	r24, 0x16	; 22
     e5a:	11 f4       	brne	.+4      	; 0xe60 <switch_menu+0x144>
	timer_set_hour();
     e5c:	43 df       	rcall	.-378    	; 0xce4 <timer_set_hour>
     e5e:	08 95       	ret
	
	else if (BUTTON_3_PRESSED && selectedMenu == MENU_ALARM)
     e60:	1a 99       	sbic	0x03, 2	; 3
     e62:	06 c0       	rjmp	.+12     	; 0xe70 <switch_menu+0x154>
     e64:	80 91 00 01 	lds	r24, 0x0100	; 0x800100 <__data_start>
     e68:	8e 31       	cpi	r24, 0x1E	; 30
     e6a:	11 f4       	brne	.+4      	; 0xe70 <switch_menu+0x154>
	alarm_set_hour();
     e6c:	4d df       	rcall	.-358    	; 0xd08 <alarm_set_hour>
     e6e:	08 95       	ret
	
	else if (BUTTON_1_PRESSED && selectedMenu == MENU_ALARM_SET_HOUR)
     e70:	33 99       	sbic	0x06, 3	; 6
     e72:	06 c0       	rjmp	.+12     	; 0xe80 <switch_menu+0x164>
     e74:	80 91 00 01 	lds	r24, 0x0100	; 0x800100 <__data_start>
     e78:	8f 31       	cpi	r24, 0x1F	; 31
     e7a:	11 f4       	brne	.+4      	; 0xe80 <switch_menu+0x164>
	add_hour();
     e7c:	93 d0       	rcall	.+294    	; 0xfa4 <add_hour>
     e7e:	08 95       	ret
	
	else if (BUTTON_2_PRESSED && selectedMenu == MENU_ALARM_SET_HOUR)
     e80:	32 99       	sbic	0x06, 2	; 6
     e82:	07 c0       	rjmp	.+14     	; 0xe92 <switch_menu+0x176>
     e84:	80 91 00 01 	lds	r24, 0x0100	; 0x800100 <__data_start>
     e88:	8f 31       	cpi	r24, 0x1F	; 31
     e8a:	09 f0       	breq	.+2      	; 0xe8e <switch_menu+0x172>
     e8c:	62 c0       	rjmp	.+196    	; 0xf52 <switch_menu+0x236>
	subtract_hour();
     e8e:	9c d0       	rcall	.+312    	; 0xfc8 <subtract_hour>
     e90:	08 95       	ret

	else if(BUTTON_3_PRESSED && selectedMenu == MENU_ALARM_SET_HOUR)
     e92:	1a 99       	sbic	0x03, 2	; 3
     e94:	09 c0       	rjmp	.+18     	; 0xea8 <switch_menu+0x18c>
     e96:	80 91 00 01 	lds	r24, 0x0100	; 0x800100 <__data_start>
     e9a:	8f 31       	cpi	r24, 0x1F	; 31
     e9c:	09 f0       	breq	.+2      	; 0xea0 <switch_menu+0x184>
     e9e:	49 c0       	rjmp	.+146    	; 0xf32 <switch_menu+0x216>
	selectedMenu = MENU_ALARM_SET_MINUTE;
     ea0:	80 e2       	ldi	r24, 0x20	; 32
     ea2:	80 93 00 01 	sts	0x0100, r24	; 0x800100 <__data_start>
     ea6:	08 95       	ret
	
	else if(BUTTON_4_PRESSED && selectedMenu == MENU_ALARM_SET_HOUR)
     ea8:	19 99       	sbic	0x03, 1	; 3
     eaa:	06 c0       	rjmp	.+12     	; 0xeb8 <switch_menu+0x19c>
     eac:	80 91 00 01 	lds	r24, 0x0100	; 0x800100 <__data_start>
     eb0:	8f 31       	cpi	r24, 0x1F	; 31
     eb2:	11 f4       	brne	.+4      	; 0xeb8 <switch_menu+0x19c>
	alarm_view();
     eb4:	21 df       	rcall	.-446    	; 0xcf8 <alarm_view>
     eb6:	08 95       	ret

	else if (BUTTON_1_PRESSED && selectedMenu == MENU_ALARM_SET_MINUTE)
     eb8:	33 99       	sbic	0x06, 3	; 6
     eba:	06 c0       	rjmp	.+12     	; 0xec8 <switch_menu+0x1ac>
     ebc:	80 91 00 01 	lds	r24, 0x0100	; 0x800100 <__data_start>
     ec0:	80 32       	cpi	r24, 0x20	; 32
     ec2:	11 f4       	brne	.+4      	; 0xec8 <switch_menu+0x1ac>
	add_minute();
     ec4:	78 d0       	rcall	.+240    	; 0xfb6 <add_minute>
     ec6:	08 95       	ret
	
	else if (BUTTON_2_PRESSED && selectedMenu == MENU_ALARM_SET_MINUTE)
     ec8:	32 99       	sbic	0x06, 2	; 6
     eca:	07 c0       	rjmp	.+14     	; 0xeda <switch_menu+0x1be>
     ecc:	80 91 00 01 	lds	r24, 0x0100	; 0x800100 <__data_start>
     ed0:	80 32       	cpi	r24, 0x20	; 32
     ed2:	09 f0       	breq	.+2      	; 0xed6 <switch_menu+0x1ba>
     ed4:	41 c0       	rjmp	.+130    	; 0xf58 <switch_menu+0x23c>
	subtract_minute();
     ed6:	80 d0       	rcall	.+256    	; 0xfd8 <subtract_minute>
     ed8:	08 95       	ret

	else if(BUTTON_3_PRESSED && selectedMenu == MENU_ALARM_SET_MINUTE)
     eda:	1a 99       	sbic	0x03, 2	; 3
     edc:	06 c0       	rjmp	.+12     	; 0xeea <switch_menu+0x1ce>
     ede:	80 91 00 01 	lds	r24, 0x0100	; 0x800100 <__data_start>
     ee2:	80 32       	cpi	r24, 0x20	; 32
     ee4:	41 f5       	brne	.+80     	; 0xf36 <switch_menu+0x21a>
	alarm_set_minute_confirm();
     ee6:	17 df       	rcall	.-466    	; 0xd16 <alarm_set_minute_confirm>
     ee8:	08 95       	ret
	
	else if(BUTTON_4_PRESSED && selectedMenu == MENU_ALARM_SET_MINUTE)
     eea:	19 99       	sbic	0x03, 1	; 3
     eec:	06 c0       	rjmp	.+12     	; 0xefa <switch_menu+0x1de>
     eee:	80 91 00 01 	lds	r24, 0x0100	; 0x800100 <__data_start>
     ef2:	80 32       	cpi	r24, 0x20	; 32
     ef4:	11 f4       	brne	.+4      	; 0xefa <switch_menu+0x1de>
	alarm_set_hour();
     ef6:	08 df       	rcall	.-496    	; 0xd08 <alarm_set_hour>
     ef8:	08 95       	ret
	
	else if(BUTTON_1_PRESSED)
     efa:	33 99       	sbic	0x06, 3	; 6
     efc:	04 c0       	rjmp	.+8      	; 0xf06 <switch_menu+0x1ea>
	selectedMenu = MENU_CLOCK;
     efe:	8a e0       	ldi	r24, 0x0A	; 10
     f00:	80 93 00 01 	sts	0x0100, r24	; 0x800100 <__data_start>
     f04:	08 95       	ret
	
	else if (BUTTON_2_PRESSED)
     f06:	32 99       	sbic	0x06, 2	; 6
     f08:	02 c0       	rjmp	.+4      	; 0xf0e <switch_menu+0x1f2>
	timer_view();
     f0a:	e4 de       	rcall	.-568    	; 0xcd4 <timer_view>
     f0c:	08 95       	ret
	
	else if (BUTTON_3_PRESSED)
     f0e:	1a 99       	sbic	0x03, 2	; 3
     f10:	02 c0       	rjmp	.+4      	; 0xf16 <switch_menu+0x1fa>
	alarm_view();
     f12:	f2 de       	rcall	.-540    	; 0xcf8 <alarm_view>
     f14:	08 95       	ret
	
	else if (BUTTON_4_PRESSED)
     f16:	19 99       	sbic	0x03, 1	; 3
     f18:	22 c0       	rjmp	.+68     	; 0xf5e <switch_menu+0x242>
	selectedMenu = MENU_TEMPEREATURE;
     f1a:	88 e2       	ldi	r24, 0x28	; 40
     f1c:	80 93 00 01 	sts	0x0100, r24	; 0x800100 <__data_start>

}
     f20:	08 95       	ret
	subtract_hour();
	
	else if(BUTTON_3_PRESSED && selectedMenu == MENU_CLOCK_SET_HOUR)
	selectedMenu = MENU_CLOCK_SET_MINUTE;
	
	else if(BUTTON_4_PRESSED && selectedMenu == MENU_CLOCK_SET_HOUR)
     f22:	83 b1       	in	r24, 0x03	; 3
     f24:	2b cf       	rjmp	.-426    	; 0xd7c <switch_menu+0x60>
	subtract_minute();

	else if(BUTTON_3_PRESSED && selectedMenu == MENU_CLOCK_SET_MINUTE)
	clock_set_minute_confirm();
	
	else if(BUTTON_4_PRESSED && selectedMenu == MENU_CLOCK_SET_MINUTE)
     f26:	83 b1       	in	r24, 0x03	; 3
     f28:	4d cf       	rjmp	.-358    	; 0xdc4 <switch_menu+0xa8>
	subtract_hour();

	else if(BUTTON_3_PRESSED && selectedMenu == MENU_TIMER_SET_HOUR)
	selectedMenu = MENU_TIMER_SET_MINUTE;
	
	else if(BUTTON_4_PRESSED && selectedMenu == MENU_TIMER_SET_HOUR)
     f2a:	83 b1       	in	r24, 0x03	; 3
     f2c:	77 cf       	rjmp	.-274    	; 0xe1c <switch_menu+0x100>
	subtract_minute();

	else if(BUTTON_3_PRESSED && selectedMenu == MENU_TIMER_SET_MINUTE)
	timer_set_minute_confirm();
	
	else if(BUTTON_4_PRESSED && selectedMenu == MENU_TIMER_SET_MINUTE)
     f2e:	83 b1       	in	r24, 0x03	; 3
     f30:	97 cf       	rjmp	.-210    	; 0xe60 <switch_menu+0x144>
	subtract_hour();

	else if(BUTTON_3_PRESSED && selectedMenu == MENU_ALARM_SET_HOUR)
	selectedMenu = MENU_ALARM_SET_MINUTE;
	
	else if(BUTTON_4_PRESSED && selectedMenu == MENU_ALARM_SET_HOUR)
     f32:	83 b1       	in	r24, 0x03	; 3
     f34:	c1 cf       	rjmp	.-126    	; 0xeb8 <switch_menu+0x19c>
	subtract_minute();

	else if(BUTTON_3_PRESSED && selectedMenu == MENU_ALARM_SET_MINUTE)
	alarm_set_minute_confirm();
	
	else if(BUTTON_4_PRESSED && selectedMenu == MENU_ALARM_SET_MINUTE)
     f36:	83 b1       	in	r24, 0x03	; 3
     f38:	e0 cf       	rjmp	.-64     	; 0xefa <switch_menu+0x1de>
	add_hour();
	
	else if (BUTTON_2_PRESSED && selectedMenu == MENU_CLOCK_SET_HOUR)
	subtract_hour();
	
	else if(BUTTON_3_PRESSED && selectedMenu == MENU_CLOCK_SET_HOUR)
     f3a:	1a 9b       	sbis	0x03, 2	; 3
     f3c:	f2 cf       	rjmp	.-28     	; 0xf22 <switch_menu+0x206>
     f3e:	14 cf       	rjmp	.-472    	; 0xd68 <switch_menu+0x4c>
	add_minute();
	
	else if (BUTTON_2_PRESSED && selectedMenu == MENU_CLOCK_SET_MINUTE)
	subtract_minute();

	else if(BUTTON_3_PRESSED && selectedMenu == MENU_CLOCK_SET_MINUTE)
     f40:	1a 9b       	sbis	0x03, 2	; 3
     f42:	f1 cf       	rjmp	.-30     	; 0xf26 <switch_menu+0x20a>
     f44:	35 cf       	rjmp	.-406    	; 0xdb0 <switch_menu+0x94>
	add_hour();
	
	else if (BUTTON_2_PRESSED && selectedMenu == MENU_TIMER_SET_HOUR)
	subtract_hour();

	else if(BUTTON_3_PRESSED && selectedMenu == MENU_TIMER_SET_HOUR)
     f46:	1a 9b       	sbis	0x03, 2	; 3
     f48:	f0 cf       	rjmp	.-32     	; 0xf2a <switch_menu+0x20e>
     f4a:	60 cf       	rjmp	.-320    	; 0xe0c <switch_menu+0xf0>
	add_minute();
	
	else if (BUTTON_2_PRESSED && selectedMenu == MENU_TIMER_SET_MINUTE)
	subtract_minute();

	else if(BUTTON_3_PRESSED && selectedMenu == MENU_TIMER_SET_MINUTE)
     f4c:	1a 9b       	sbis	0x03, 2	; 3
     f4e:	ef cf       	rjmp	.-34     	; 0xf2e <switch_menu+0x212>
     f50:	7f cf       	rjmp	.-258    	; 0xe50 <switch_menu+0x134>
	add_hour();
	
	else if (BUTTON_2_PRESSED && selectedMenu == MENU_ALARM_SET_HOUR)
	subtract_hour();

	else if(BUTTON_3_PRESSED && selectedMenu == MENU_ALARM_SET_HOUR)
     f52:	1a 9b       	sbis	0x03, 2	; 3
     f54:	ee cf       	rjmp	.-36     	; 0xf32 <switch_menu+0x216>
     f56:	a8 cf       	rjmp	.-176    	; 0xea8 <switch_menu+0x18c>
	add_minute();
	
	else if (BUTTON_2_PRESSED && selectedMenu == MENU_ALARM_SET_MINUTE)
	subtract_minute();

	else if(BUTTON_3_PRESSED && selectedMenu == MENU_ALARM_SET_MINUTE)
     f58:	1a 9b       	sbis	0x03, 2	; 3
     f5a:	ed cf       	rjmp	.-38     	; 0xf36 <switch_menu+0x21a>
     f5c:	c6 cf       	rjmp	.-116    	; 0xeea <switch_menu+0x1ce>
     f5e:	08 95       	ret

00000f60 <on_button_pressed>:
	selectedMenu = MENU_CLOCK;
}

void on_button_pressed()
{
	ssd1306_clear_display();
     f60:	5e dc       	rcall	.-1860   	; 0x81e <ssd1306_clear_display>
	switch_menu();
     f62:	dc de       	rcall	.-584    	; 0xd1c <switch_menu>
     f64:	2f ef       	ldi	r18, 0xFF	; 255
     f66:	81 ee       	ldi	r24, 0xE1	; 225
     f68:	94 e0       	ldi	r25, 0x04	; 4
     f6a:	21 50       	subi	r18, 0x01	; 1
     f6c:	80 40       	sbci	r24, 0x00	; 0
     f6e:	90 40       	sbci	r25, 0x00	; 0
     f70:	e1 f7       	brne	.-8      	; 0xf6a <on_button_pressed+0xa>
     f72:	00 c0       	rjmp	.+0      	; 0xf74 <on_button_pressed+0x14>
     f74:	00 00       	nop
     f76:	08 95       	ret

00000f78 <add_safe_hour>:
	selectedMinute = add_number(selectedMinute, MINUTES_IN_HOUR - 1);
}

void add_second()
{
	selectedSecond = add_number(selectedSecond, SECONDS_IN_MINUTE -1);
     f78:	8f 5f       	subi	r24, 0xFF	; 255
     f7a:	88 31       	cpi	r24, 0x18	; 24
     f7c:	0c f0       	brlt	.+2      	; 0xf80 <add_safe_hour+0x8>
     f7e:	80 e0       	ldi	r24, 0x00	; 0
     f80:	08 95       	ret

00000f82 <add_safe_minute>:
     f82:	8f 5f       	subi	r24, 0xFF	; 255
     f84:	8c 33       	cpi	r24, 0x3C	; 60
     f86:	0c f0       	brlt	.+2      	; 0xf8a <add_safe_minute+0x8>
     f88:	80 e0       	ldi	r24, 0x00	; 0
     f8a:	08 95       	ret

00000f8c <add_safe_second>:
     f8c:	8f 5f       	subi	r24, 0xFF	; 255
     f8e:	8c 33       	cpi	r24, 0x3C	; 60
     f90:	0c f0       	brlt	.+2      	; 0xf94 <add_safe_second+0x8>
     f92:	80 e0       	ldi	r24, 0x00	; 0
     f94:	08 95       	ret

00000f96 <reset>:
     f96:	10 92 91 01 	sts	0x0191, r1	; 0x800191 <selectedHour>
     f9a:	10 92 8f 01 	sts	0x018F, r1	; 0x80018f <selectedMinute>
     f9e:	10 92 90 01 	sts	0x0190, r1	; 0x800190 <selectedSecond>
     fa2:	08 95       	ret

00000fa4 <add_hour>:
     fa4:	80 91 91 01 	lds	r24, 0x0191	; 0x800191 <selectedHour>
     fa8:	8f 5f       	subi	r24, 0xFF	; 255
     faa:	88 31       	cpi	r24, 0x18	; 24
     fac:	0c f0       	brlt	.+2      	; 0xfb0 <add_hour+0xc>
     fae:	80 e0       	ldi	r24, 0x00	; 0
     fb0:	80 93 91 01 	sts	0x0191, r24	; 0x800191 <selectedHour>
     fb4:	08 95       	ret

00000fb6 <add_minute>:
     fb6:	80 91 8f 01 	lds	r24, 0x018F	; 0x80018f <selectedMinute>
     fba:	8f 5f       	subi	r24, 0xFF	; 255
     fbc:	8c 33       	cpi	r24, 0x3C	; 60
     fbe:	0c f0       	brlt	.+2      	; 0xfc2 <add_minute+0xc>
     fc0:	80 e0       	ldi	r24, 0x00	; 0
     fc2:	80 93 8f 01 	sts	0x018F, r24	; 0x80018f <selectedMinute>
     fc6:	08 95       	ret

00000fc8 <subtract_hour>:
	return number;
}

uint8_t subtract_number(int8_t number, int8_t max)
{
	number--;
     fc8:	80 91 91 01 	lds	r24, 0x0191	; 0x800191 <selectedHour>
     fcc:	81 50       	subi	r24, 0x01	; 1
	
	if(number < 0)
     fce:	0a f4       	brpl	.+2      	; 0xfd2 <subtract_hour+0xa>
	{
		number = max;
     fd0:	87 e1       	ldi	r24, 0x17	; 23
	selectedSecond = add_number(selectedSecond, SECONDS_IN_MINUTE -1);
}

void subtract_hour()
{
	selectedHour = subtract_number(selectedHour, HOURS_IN_DAY - 1);
     fd2:	80 93 91 01 	sts	0x0191, r24	; 0x800191 <selectedHour>
     fd6:	08 95       	ret

00000fd8 <subtract_minute>:
	return number;
}

uint8_t subtract_number(int8_t number, int8_t max)
{
	number--;
     fd8:	80 91 8f 01 	lds	r24, 0x018F	; 0x80018f <selectedMinute>
     fdc:	81 50       	subi	r24, 0x01	; 1
	
	if(number < 0)
     fde:	0a f4       	brpl	.+2      	; 0xfe2 <subtract_minute+0xa>
	{
		number = max;
     fe0:	8b e3       	ldi	r24, 0x3B	; 59
	selectedHour = subtract_number(selectedHour, HOURS_IN_DAY - 1);
}

void subtract_minute()
{
	selectedMinute = subtract_number(selectedMinute, MINUTES_IN_HOUR - 1);
     fe2:	80 93 8f 01 	sts	0x018F, r24	; 0x80018f <selectedMinute>
     fe6:	08 95       	ret

00000fe8 <port_init>:
#include "Logic/menu.h"
#include "Logic/buzzer.h"

void port_init()
{
	DDRC &= ~(BUTTON_2 | BUTTON_1);
     fe8:	87 b1       	in	r24, 0x07	; 7
     fea:	83 7f       	andi	r24, 0xF3	; 243
     fec:	87 b9       	out	0x07, r24	; 7
	DDRB &= ~(BUTTON_4 | BUTTON_3);
     fee:	84 b1       	in	r24, 0x04	; 4
     ff0:	89 7f       	andi	r24, 0xF9	; 249
     ff2:	84 b9       	out	0x04, r24	; 4
	DDRB |= LED2;
     ff4:	20 9a       	sbi	0x04, 0	; 4
	DDRD |= BUZZER | LED1;
     ff6:	8a b1       	in	r24, 0x0a	; 10
     ff8:	80 6a       	ori	r24, 0xA0	; 160
     ffa:	8a b9       	out	0x0a, r24	; 10
	
	PORTD |= LED1;
     ffc:	5f 9a       	sbi	0x0b, 7	; 11
	PORTB &= ~LED2;
     ffe:	28 98       	cbi	0x05, 0	; 5
	
	TCCR1B = (1<<CS12) | (1<<WGM12);
    1000:	8c e0       	ldi	r24, 0x0C	; 12
    1002:	80 93 81 00 	sts	0x0081, r24	; 0x800081 <__DATA_REGION_ORIGIN__+0x21>
	OCR1AH = 0x7A;
    1006:	8a e7       	ldi	r24, 0x7A	; 122
    1008:	80 93 89 00 	sts	0x0089, r24	; 0x800089 <__DATA_REGION_ORIGIN__+0x29>
	OCR1AL = 0x12;
    100c:	82 e1       	ldi	r24, 0x12	; 18
    100e:	80 93 88 00 	sts	0x0088, r24	; 0x800088 <__DATA_REGION_ORIGIN__+0x28>
	TIMSK1 |= (1<<ICIE1) | (1<<OCIE1A);
    1012:	ef e6       	ldi	r30, 0x6F	; 111
    1014:	f0 e0       	ldi	r31, 0x00	; 0
    1016:	80 81       	ld	r24, Z
    1018:	82 62       	ori	r24, 0x22	; 34
    101a:	80 83       	st	Z, r24
    101c:	08 95       	ret

0000101e <main>:
}

int main(void)
{
	sei();
    101e:	78 94       	sei
	port_init();
    1020:	e3 df       	rcall	.-58     	; 0xfe8 <port_init>
	display_init();
    1022:	cc dc       	rcall	.-1640   	; 0x9bc <display_init>
	DHT_Setup();
    1024:	4c da       	rcall	.-2920   	; 0x4be <DHT_Setup>

	while (1)
	{
		if(BUTTON_PRESSED)
    1026:	33 9b       	sbis	0x06, 3	; 6
    1028:	05 c0       	rjmp	.+10     	; 0x1034 <main+0x16>
    102a:	32 9b       	sbis	0x06, 2	; 6
    102c:	03 c0       	rjmp	.+6      	; 0x1034 <main+0x16>
    102e:	1a 9b       	sbis	0x03, 2	; 3
    1030:	01 c0       	rjmp	.+2      	; 0x1034 <main+0x16>
    1032:	19 9b       	sbis	0x03, 1	; 3
			on_button_pressed();
    1034:	95 df       	rcall	.-214    	; 0xf60 <on_button_pressed>
		
		refresh_screen();
    1036:	15 de       	rcall	.-982    	; 0xc62 <refresh_screen>
	}
    1038:	f6 cf       	rjmp	.-20     	; 0x1026 <main+0x8>

0000103a <__vector_11>:
}

ISR (TIMER1_COMPA_vect)
{
    103a:	1f 92       	push	r1
    103c:	0f 92       	push	r0
    103e:	0f b6       	in	r0, 0x3f	; 63
    1040:	0f 92       	push	r0
    1042:	11 24       	eor	r1, r1
    1044:	2f 93       	push	r18
    1046:	3f 93       	push	r19
    1048:	4f 93       	push	r20
    104a:	5f 93       	push	r21
    104c:	6f 93       	push	r22
    104e:	7f 93       	push	r23
    1050:	8f 93       	push	r24
    1052:	9f 93       	push	r25
    1054:	af 93       	push	r26
    1056:	bf 93       	push	r27
    1058:	ef 93       	push	r30
    105a:	ff 93       	push	r31
	clock_trigger();
    105c:	ed d0       	rcall	.+474    	; 0x1238 <clock_trigger>
	timer_trigger();
    105e:	2e d2       	rcall	.+1116   	; 0x14bc <timer_trigger>
	alarm_trigger();
    1060:	37 d0       	rcall	.+110    	; 0x10d0 <alarm_trigger>
}
    1062:	ff 91       	pop	r31
    1064:	ef 91       	pop	r30
    1066:	bf 91       	pop	r27
    1068:	af 91       	pop	r26
    106a:	9f 91       	pop	r25
    106c:	8f 91       	pop	r24
    106e:	7f 91       	pop	r23
    1070:	6f 91       	pop	r22
    1072:	5f 91       	pop	r21
    1074:	4f 91       	pop	r20
    1076:	3f 91       	pop	r19
    1078:	2f 91       	pop	r18
    107a:	0f 90       	pop	r0
    107c:	0f be       	out	0x3f, r0	; 63
    107e:	0f 90       	pop	r0
    1080:	1f 90       	pop	r1
    1082:	18 95       	reti

00001084 <alarm_is_ready>:

uint8_t alarmExpectedHour = 0;
uint8_t alarmExpectedMinute = 0;
uint8_t alarmExpectedSecond = 0;

bool alarm_is_ready() {return alarmReady;}
    1084:	80 91 84 01 	lds	r24, 0x0184	; 0x800184 <alarmReady>
    1088:	08 95       	ret

0000108a <alarm_is_running>:
bool alarm_is_running() {return alarmRunning;}
    108a:	80 91 83 01 	lds	r24, 0x0183	; 0x800183 <alarmRunning>
    108e:	08 95       	ret

00001090 <alarm_reset>:

void alarm_reset()
{
	PORTD |= LED1;
    1090:	5f 9a       	sbi	0x0b, 7	; 11
	PORTD &= ~BUZZER;
    1092:	5d 98       	cbi	0x0b, 5	; 11
	reset();
    1094:	80 df       	rcall	.-256    	; 0xf96 <reset>
	
	alarmReady = 0;
    1096:	10 92 84 01 	sts	0x0184, r1	; 0x800184 <alarmReady>
	alarmRunning = 0;
    109a:	10 92 83 01 	sts	0x0183, r1	; 0x800183 <alarmRunning>
	
	alarmExpectedHour = 0;
    109e:	10 92 82 01 	sts	0x0182, r1	; 0x800182 <alarmExpectedHour>
	alarmExpectedMinute = 0;
    10a2:	10 92 81 01 	sts	0x0181, r1	; 0x800181 <alarmExpectedMinute>
	alarmExpectedSecond = 0;
    10a6:	10 92 80 01 	sts	0x0180, r1	; 0x800180 <__data_end>
    10aa:	08 95       	ret

000010ac <alarm_run>:
}

void alarm_run()
{
	if(alarmRunning == 0)
    10ac:	80 91 83 01 	lds	r24, 0x0183	; 0x800183 <alarmRunning>
    10b0:	81 11       	cpse	r24, r1
    10b2:	0d c0       	rjmp	.+26     	; 0x10ce <alarm_run+0x22>
	{
		alarmExpectedSecond = 0;
    10b4:	10 92 80 01 	sts	0x0180, r1	; 0x800180 <__data_end>
		alarmExpectedHour = selectedHour;
    10b8:	80 91 91 01 	lds	r24, 0x0191	; 0x800191 <selectedHour>
    10bc:	80 93 82 01 	sts	0x0182, r24	; 0x800182 <alarmExpectedHour>
		alarmExpectedMinute = selectedMinute;
    10c0:	80 91 8f 01 	lds	r24, 0x018F	; 0x80018f <selectedMinute>
    10c4:	80 93 81 01 	sts	0x0181, r24	; 0x800181 <alarmExpectedMinute>
		alarmRunning = 1;
    10c8:	81 e0       	ldi	r24, 0x01	; 1
    10ca:	80 93 83 01 	sts	0x0183, r24	; 0x800183 <alarmRunning>
    10ce:	08 95       	ret

000010d0 <alarm_trigger>:
	}
}

void alarm_trigger()
{
	if(alarmRunning == 1
    10d0:	80 91 83 01 	lds	r24, 0x0183	; 0x800183 <alarmRunning>
    10d4:	88 23       	and	r24, r24
    10d6:	c9 f0       	breq	.+50     	; 0x110a <alarm_trigger+0x3a>
	&& alarmReady == 0
    10d8:	80 91 84 01 	lds	r24, 0x0184	; 0x800184 <alarmReady>
    10dc:	81 11       	cpse	r24, r1
    10de:	15 c0       	rjmp	.+42     	; 0x110a <alarm_trigger+0x3a>
	&& current_hour == alarmExpectedHour
    10e0:	90 91 8e 01 	lds	r25, 0x018E	; 0x80018e <current_hour>
    10e4:	80 91 82 01 	lds	r24, 0x0182	; 0x800182 <alarmExpectedHour>
    10e8:	98 13       	cpse	r25, r24
    10ea:	0f c0       	rjmp	.+30     	; 0x110a <alarm_trigger+0x3a>
	&& current_minute == alarmExpectedMinute
    10ec:	90 91 8c 01 	lds	r25, 0x018C	; 0x80018c <current_minute>
    10f0:	80 91 81 01 	lds	r24, 0x0181	; 0x800181 <alarmExpectedMinute>
    10f4:	98 13       	cpse	r25, r24
    10f6:	09 c0       	rjmp	.+18     	; 0x110a <alarm_trigger+0x3a>
	&& current_second == alarmExpectedSecond)
    10f8:	90 91 8d 01 	lds	r25, 0x018D	; 0x80018d <current_second>
    10fc:	80 91 80 01 	lds	r24, 0x0180	; 0x800180 <__data_end>
    1100:	98 13       	cpse	r25, r24
    1102:	03 c0       	rjmp	.+6      	; 0x110a <alarm_trigger+0x3a>
	{
		alarmReady = 1;
    1104:	81 e0       	ldi	r24, 0x01	; 1
    1106:	80 93 84 01 	sts	0x0184, r24	; 0x800184 <alarmReady>
    110a:	08 95       	ret

0000110c <display_alarm>:
	draw_header("ALARM SET M",timer_is_running(),alarm_is_running());
	display_alarm(selectedHour,selectedMinute,0,0,1,0);
}

void display_alarm(uint8_t hour, uint8_t minute, uint8_t second, bool displayHour, bool displayMinute, bool displaySeconds)
{
    110c:	af 92       	push	r10
    110e:	cf 92       	push	r12
    1110:	ef 92       	push	r14
    1112:	0f 93       	push	r16
	if(alarmRunning == 0)
    1114:	90 91 83 01 	lds	r25, 0x0183	; 0x800183 <alarmRunning>
    1118:	91 11       	cpse	r25, r1
    111a:	0a c0       	rjmp	.+20     	; 0x1130 <display_alarm+0x24>
	{
		draw_clock(0,2, hour, minute,second, displayHour, displayMinute, displaySeconds);
    111c:	ae 2c       	mov	r10, r14
    111e:	c0 2e       	mov	r12, r16
    1120:	e2 2e       	mov	r14, r18
    1122:	04 2f       	mov	r16, r20
    1124:	26 2f       	mov	r18, r22
    1126:	48 2f       	mov	r20, r24
    1128:	62 e0       	ldi	r22, 0x02	; 2
    112a:	80 e0       	ldi	r24, 0x00	; 0
    112c:	43 dd       	rcall	.-1402   	; 0xbb4 <draw_clock>
    112e:	10 c0       	rjmp	.+32     	; 0x1150 <display_alarm+0x44>
	}
	else if(alarmRunning == 1 && alarmReady == 0)
    1130:	90 91 84 01 	lds	r25, 0x0184	; 0x800184 <alarmReady>
    1134:	91 11       	cpse	r25, r1
    1136:	0a c0       	rjmp	.+20     	; 0x114c <display_alarm+0x40>
	{
		draw_clock(0,2, hour, minute, second, displayHour, displayMinute, displaySeconds);
    1138:	ae 2c       	mov	r10, r14
    113a:	c0 2e       	mov	r12, r16
    113c:	e2 2e       	mov	r14, r18
    113e:	04 2f       	mov	r16, r20
    1140:	26 2f       	mov	r18, r22
    1142:	48 2f       	mov	r20, r24
    1144:	62 e0       	ldi	r22, 0x02	; 2
    1146:	80 e0       	ldi	r24, 0x00	; 0
    1148:	35 dd       	rcall	.-1430   	; 0xbb4 <draw_clock>
    114a:	02 c0       	rjmp	.+4      	; 0x1150 <display_alarm+0x44>
	}
	else
	{
		draw_its_time();
    114c:	61 dd       	rcall	.-1342   	; 0xc10 <draw_its_time>
		play_alarm_sound();
    114e:	1a dc       	rcall	.-1996   	; 0x984 <play_alarm_sound>
	}
    1150:	0f 91       	pop	r16
    1152:	ef 90       	pop	r14
    1154:	cf 90       	pop	r12
    1156:	af 90       	pop	r10
    1158:	08 95       	ret

0000115a <display_alarm_view>:
		alarmReady = 1;
	}
}

void display_alarm_view()
{
    115a:	ef 92       	push	r14
    115c:	ff 92       	push	r15
    115e:	0f 93       	push	r16
    1160:	1f 93       	push	r17
    1162:	cf 93       	push	r28
uint8_t alarmExpectedHour = 0;
uint8_t alarmExpectedMinute = 0;
uint8_t alarmExpectedSecond = 0;

bool alarm_is_ready() {return alarmReady;}
bool alarm_is_running() {return alarmRunning;}
    1164:	c0 91 83 01 	lds	r28, 0x0183	; 0x800183 <alarmRunning>
	}
}

void display_alarm_view()
{
	draw_header("ALARM",timer_is_running(),alarm_is_running());
    1168:	86 d1       	rcall	.+780    	; 0x1476 <timer_is_running>
    116a:	61 e0       	ldi	r22, 0x01	; 1
    116c:	89 2b       	or	r24, r25
    116e:	09 f4       	brne	.+2      	; 0x1172 <display_alarm_view+0x18>
    1170:	60 e0       	ldi	r22, 0x00	; 0
    1172:	4c 2f       	mov	r20, r28
    1174:	84 e1       	ldi	r24, 0x14	; 20
    1176:	91 e0       	ldi	r25, 0x01	; 1
    1178:	5b dd       	rcall	.-1354   	; 0xc30 <draw_header>
	display_alarm(alarmExpectedHour,alarmExpectedMinute,0,1,1,0);
    117a:	60 91 81 01 	lds	r22, 0x0181	; 0x800181 <alarmExpectedMinute>
    117e:	70 e0       	ldi	r23, 0x00	; 0
    1180:	80 91 82 01 	lds	r24, 0x0182	; 0x800182 <alarmExpectedHour>
    1184:	e1 2c       	mov	r14, r1
    1186:	f1 2c       	mov	r15, r1
    1188:	01 e0       	ldi	r16, 0x01	; 1
    118a:	10 e0       	ldi	r17, 0x00	; 0
    118c:	21 e0       	ldi	r18, 0x01	; 1
    118e:	30 e0       	ldi	r19, 0x00	; 0
    1190:	40 e0       	ldi	r20, 0x00	; 0
    1192:	50 e0       	ldi	r21, 0x00	; 0
    1194:	90 e0       	ldi	r25, 0x00	; 0
    1196:	ba df       	rcall	.-140    	; 0x110c <display_alarm>
}
    1198:	cf 91       	pop	r28
    119a:	1f 91       	pop	r17
    119c:	0f 91       	pop	r16
    119e:	ff 90       	pop	r15
    11a0:	ef 90       	pop	r14
    11a2:	08 95       	ret

000011a4 <display_alarm_hour_set_view>:

void display_alarm_hour_set_view()
{
    11a4:	ef 92       	push	r14
    11a6:	ff 92       	push	r15
    11a8:	0f 93       	push	r16
    11aa:	1f 93       	push	r17
    11ac:	cf 93       	push	r28
uint8_t alarmExpectedHour = 0;
uint8_t alarmExpectedMinute = 0;
uint8_t alarmExpectedSecond = 0;

bool alarm_is_ready() {return alarmReady;}
bool alarm_is_running() {return alarmRunning;}
    11ae:	c0 91 83 01 	lds	r28, 0x0183	; 0x800183 <alarmRunning>
	display_alarm(alarmExpectedHour,alarmExpectedMinute,0,1,1,0);
}

void display_alarm_hour_set_view()
{
	draw_header("ALARM SET H",timer_is_running(),alarm_is_running());
    11b2:	61 d1       	rcall	.+706    	; 0x1476 <timer_is_running>
    11b4:	61 e0       	ldi	r22, 0x01	; 1
    11b6:	89 2b       	or	r24, r25
    11b8:	09 f4       	brne	.+2      	; 0x11bc <display_alarm_hour_set_view+0x18>
    11ba:	60 e0       	ldi	r22, 0x00	; 0
    11bc:	4c 2f       	mov	r20, r28
    11be:	8a e1       	ldi	r24, 0x1A	; 26
    11c0:	91 e0       	ldi	r25, 0x01	; 1
    11c2:	36 dd       	rcall	.-1428   	; 0xc30 <draw_header>
	display_alarm(selectedHour,selectedMinute,0,1,0,0);
    11c4:	60 91 8f 01 	lds	r22, 0x018F	; 0x80018f <selectedMinute>
    11c8:	70 e0       	ldi	r23, 0x00	; 0
    11ca:	80 91 91 01 	lds	r24, 0x0191	; 0x800191 <selectedHour>
    11ce:	e1 2c       	mov	r14, r1
    11d0:	f1 2c       	mov	r15, r1
    11d2:	00 e0       	ldi	r16, 0x00	; 0
    11d4:	10 e0       	ldi	r17, 0x00	; 0
    11d6:	21 e0       	ldi	r18, 0x01	; 1
    11d8:	30 e0       	ldi	r19, 0x00	; 0
    11da:	40 e0       	ldi	r20, 0x00	; 0
    11dc:	50 e0       	ldi	r21, 0x00	; 0
    11de:	90 e0       	ldi	r25, 0x00	; 0
    11e0:	95 df       	rcall	.-214    	; 0x110c <display_alarm>
}
    11e2:	cf 91       	pop	r28
    11e4:	1f 91       	pop	r17
    11e6:	0f 91       	pop	r16
    11e8:	ff 90       	pop	r15
    11ea:	ef 90       	pop	r14
    11ec:	08 95       	ret

000011ee <display_alarm_minute_set_view>:

void display_alarm_minute_set_view()
{
    11ee:	ef 92       	push	r14
    11f0:	ff 92       	push	r15
    11f2:	0f 93       	push	r16
    11f4:	1f 93       	push	r17
    11f6:	cf 93       	push	r28
uint8_t alarmExpectedHour = 0;
uint8_t alarmExpectedMinute = 0;
uint8_t alarmExpectedSecond = 0;

bool alarm_is_ready() {return alarmReady;}
bool alarm_is_running() {return alarmRunning;}
    11f8:	c0 91 83 01 	lds	r28, 0x0183	; 0x800183 <alarmRunning>
	display_alarm(selectedHour,selectedMinute,0,1,0,0);
}

void display_alarm_minute_set_view()
{
	draw_header("ALARM SET M",timer_is_running(),alarm_is_running());
    11fc:	3c d1       	rcall	.+632    	; 0x1476 <timer_is_running>
    11fe:	61 e0       	ldi	r22, 0x01	; 1
    1200:	89 2b       	or	r24, r25
    1202:	09 f4       	brne	.+2      	; 0x1206 <display_alarm_minute_set_view+0x18>
    1204:	60 e0       	ldi	r22, 0x00	; 0
    1206:	4c 2f       	mov	r20, r28
    1208:	86 e2       	ldi	r24, 0x26	; 38
    120a:	91 e0       	ldi	r25, 0x01	; 1
    120c:	11 dd       	rcall	.-1502   	; 0xc30 <draw_header>
	display_alarm(selectedHour,selectedMinute,0,0,1,0);
    120e:	60 91 8f 01 	lds	r22, 0x018F	; 0x80018f <selectedMinute>
    1212:	70 e0       	ldi	r23, 0x00	; 0
    1214:	80 91 91 01 	lds	r24, 0x0191	; 0x800191 <selectedHour>
    1218:	e1 2c       	mov	r14, r1
    121a:	f1 2c       	mov	r15, r1
    121c:	01 e0       	ldi	r16, 0x01	; 1
    121e:	10 e0       	ldi	r17, 0x00	; 0
    1220:	20 e0       	ldi	r18, 0x00	; 0
    1222:	30 e0       	ldi	r19, 0x00	; 0
    1224:	40 e0       	ldi	r20, 0x00	; 0
    1226:	50 e0       	ldi	r21, 0x00	; 0
    1228:	90 e0       	ldi	r25, 0x00	; 0
    122a:	70 df       	rcall	.-288    	; 0x110c <display_alarm>
}
    122c:	cf 91       	pop	r28
    122e:	1f 91       	pop	r17
    1230:	0f 91       	pop	r16
    1232:	ff 90       	pop	r15
    1234:	ef 90       	pop	r14
    1236:	08 95       	ret

00001238 <clock_trigger>:
#include "../Logic/display_extensions.h"
#include "../Logic/time.h"
#include "clock.h"

void clock_trigger()
{
    1238:	cf 93       	push	r28
	uint8_t previous = current_second;
    123a:	c0 91 8d 01 	lds	r28, 0x018D	; 0x80018d <current_second>
	current_second = add_safe_second(current_second);
    123e:	8c 2f       	mov	r24, r28
    1240:	a5 de       	rcall	.-694    	; 0xf8c <add_safe_second>
    1242:	80 93 8d 01 	sts	0x018D, r24	; 0x80018d <current_second>
	
	if(previous == (SECONDS_IN_MINUTE - 1) && current_second == 0)
    1246:	cb 33       	cpi	r28, 0x3B	; 59
    1248:	99 f4       	brne	.+38     	; 0x1270 <clock_trigger+0x38>
    124a:	81 11       	cpse	r24, r1
    124c:	08 c0       	rjmp	.+16     	; 0x125e <clock_trigger+0x26>
	{
		previous = current_minute;
    124e:	c0 91 8c 01 	lds	r28, 0x018C	; 0x80018c <current_minute>
		current_minute = add_safe_minute(current_minute);
    1252:	8c 2f       	mov	r24, r28
    1254:	96 de       	rcall	.-724    	; 0xf82 <add_safe_minute>
    1256:	80 93 8c 01 	sts	0x018C, r24	; 0x80018c <current_minute>
	}
	
	if(previous == (MINUTES_IN_HOUR - 1) && current_minute == 0)
    125a:	cb 33       	cpi	r28, 0x3B	; 59
    125c:	49 f4       	brne	.+18     	; 0x1270 <clock_trigger+0x38>
    125e:	80 91 8c 01 	lds	r24, 0x018C	; 0x80018c <current_minute>
    1262:	81 11       	cpse	r24, r1
    1264:	05 c0       	rjmp	.+10     	; 0x1270 <clock_trigger+0x38>
	current_hour = add_safe_hour(current_hour);
    1266:	80 91 8e 01 	lds	r24, 0x018E	; 0x80018e <current_hour>
    126a:	86 de       	rcall	.-756    	; 0xf78 <add_safe_hour>
    126c:	80 93 8e 01 	sts	0x018E, r24	; 0x80018e <current_hour>
}
    1270:	cf 91       	pop	r28
    1272:	08 95       	ret

00001274 <clock_save>:

void clock_save()
{
	current_second = 0;
    1274:	10 92 8d 01 	sts	0x018D, r1	; 0x80018d <current_second>
	current_hour = selectedHour;
    1278:	80 91 91 01 	lds	r24, 0x0191	; 0x800191 <selectedHour>
    127c:	80 93 8e 01 	sts	0x018E, r24	; 0x80018e <current_hour>
	current_minute	= selectedMinute;
    1280:	80 91 8f 01 	lds	r24, 0x018F	; 0x80018f <selectedMinute>
    1284:	80 93 8c 01 	sts	0x018C, r24	; 0x80018c <current_minute>
    1288:	08 95       	ret

0000128a <display_clock>:
	draw_header("CLOCK SET M",timer_is_running(),alarm_is_running());
	display_clock(selectedHour, selectedMinute, 0, 0, 1, 0);
}

void display_clock(uint8_t hour, uint8_t minute, uint8_t second, bool displayHour, bool displayMinute, bool displaySeconds)
{
    128a:	af 92       	push	r10
    128c:	cf 92       	push	r12
    128e:	ef 92       	push	r14
    1290:	0f 93       	push	r16
	draw_clock(0,2, hour, minute, second, displayHour, displayMinute, displaySeconds);
    1292:	ae 2c       	mov	r10, r14
    1294:	c0 2e       	mov	r12, r16
    1296:	e2 2e       	mov	r14, r18
    1298:	04 2f       	mov	r16, r20
    129a:	26 2f       	mov	r18, r22
    129c:	48 2f       	mov	r20, r24
    129e:	62 e0       	ldi	r22, 0x02	; 2
    12a0:	80 e0       	ldi	r24, 0x00	; 0
    12a2:	88 dc       	rcall	.-1776   	; 0xbb4 <draw_clock>
    12a4:	0f 91       	pop	r16
    12a6:	ef 90       	pop	r14
    12a8:	cf 90       	pop	r12
    12aa:	af 90       	pop	r10
    12ac:	08 95       	ret

000012ae <display_clock_view>:
	current_hour = selectedHour;
	current_minute	= selectedMinute;
}

void display_clock_view()
{
    12ae:	ef 92       	push	r14
    12b0:	ff 92       	push	r15
    12b2:	0f 93       	push	r16
    12b4:	1f 93       	push	r17
    12b6:	cf 93       	push	r28
    12b8:	df 93       	push	r29
	draw_header("CLOCK",timer_is_running(),alarm_is_running());
    12ba:	e7 de       	rcall	.-562    	; 0x108a <alarm_is_running>
    12bc:	ec 01       	movw	r28, r24
    12be:	db d0       	rcall	.+438    	; 0x1476 <timer_is_running>
    12c0:	41 e0       	ldi	r20, 0x01	; 1
    12c2:	cd 2b       	or	r28, r29
    12c4:	09 f4       	brne	.+2      	; 0x12c8 <display_clock_view+0x1a>
    12c6:	40 e0       	ldi	r20, 0x00	; 0
    12c8:	61 e0       	ldi	r22, 0x01	; 1
    12ca:	89 2b       	or	r24, r25
    12cc:	09 f4       	brne	.+2      	; 0x12d0 <display_clock_view+0x22>
    12ce:	60 e0       	ldi	r22, 0x00	; 0
    12d0:	82 e3       	ldi	r24, 0x32	; 50
    12d2:	91 e0       	ldi	r25, 0x01	; 1
    12d4:	ad dc       	rcall	.-1702   	; 0xc30 <draw_header>
	display_clock(current_hour, current_minute,current_second, 1,1,1);
    12d6:	40 91 8d 01 	lds	r20, 0x018D	; 0x80018d <current_second>
    12da:	50 e0       	ldi	r21, 0x00	; 0
    12dc:	60 91 8c 01 	lds	r22, 0x018C	; 0x80018c <current_minute>
    12e0:	70 e0       	ldi	r23, 0x00	; 0
    12e2:	80 91 8e 01 	lds	r24, 0x018E	; 0x80018e <current_hour>
    12e6:	ee 24       	eor	r14, r14
    12e8:	e3 94       	inc	r14
    12ea:	f1 2c       	mov	r15, r1
    12ec:	01 e0       	ldi	r16, 0x01	; 1
    12ee:	10 e0       	ldi	r17, 0x00	; 0
    12f0:	21 e0       	ldi	r18, 0x01	; 1
    12f2:	30 e0       	ldi	r19, 0x00	; 0
    12f4:	90 e0       	ldi	r25, 0x00	; 0
    12f6:	c9 df       	rcall	.-110    	; 0x128a <display_clock>
}
    12f8:	df 91       	pop	r29
    12fa:	cf 91       	pop	r28
    12fc:	1f 91       	pop	r17
    12fe:	0f 91       	pop	r16
    1300:	ff 90       	pop	r15
    1302:	ef 90       	pop	r14
    1304:	08 95       	ret

00001306 <display_clock_hour_set_view>:

void display_clock_hour_set_view()
{
    1306:	ef 92       	push	r14
    1308:	ff 92       	push	r15
    130a:	0f 93       	push	r16
    130c:	1f 93       	push	r17
    130e:	cf 93       	push	r28
    1310:	df 93       	push	r29
	draw_header("CLOCK SET H",timer_is_running(),alarm_is_running());
    1312:	bb de       	rcall	.-650    	; 0x108a <alarm_is_running>
    1314:	ec 01       	movw	r28, r24
    1316:	af d0       	rcall	.+350    	; 0x1476 <timer_is_running>
    1318:	41 e0       	ldi	r20, 0x01	; 1
    131a:	cd 2b       	or	r28, r29
    131c:	09 f4       	brne	.+2      	; 0x1320 <display_clock_hour_set_view+0x1a>
    131e:	40 e0       	ldi	r20, 0x00	; 0
    1320:	61 e0       	ldi	r22, 0x01	; 1
    1322:	89 2b       	or	r24, r25
    1324:	09 f4       	brne	.+2      	; 0x1328 <display_clock_hour_set_view+0x22>
    1326:	60 e0       	ldi	r22, 0x00	; 0
    1328:	88 e3       	ldi	r24, 0x38	; 56
    132a:	91 e0       	ldi	r25, 0x01	; 1
    132c:	81 dc       	rcall	.-1790   	; 0xc30 <draw_header>
	display_clock(selectedHour, selectedMinute, 0,1,0,0);
    132e:	60 91 8f 01 	lds	r22, 0x018F	; 0x80018f <selectedMinute>
    1332:	70 e0       	ldi	r23, 0x00	; 0
    1334:	80 91 91 01 	lds	r24, 0x0191	; 0x800191 <selectedHour>
    1338:	e1 2c       	mov	r14, r1
    133a:	f1 2c       	mov	r15, r1
    133c:	00 e0       	ldi	r16, 0x00	; 0
    133e:	10 e0       	ldi	r17, 0x00	; 0
    1340:	21 e0       	ldi	r18, 0x01	; 1
    1342:	30 e0       	ldi	r19, 0x00	; 0
    1344:	40 e0       	ldi	r20, 0x00	; 0
    1346:	50 e0       	ldi	r21, 0x00	; 0
    1348:	90 e0       	ldi	r25, 0x00	; 0
    134a:	9f df       	rcall	.-194    	; 0x128a <display_clock>
}
    134c:	df 91       	pop	r29
    134e:	cf 91       	pop	r28
    1350:	1f 91       	pop	r17
    1352:	0f 91       	pop	r16
    1354:	ff 90       	pop	r15
    1356:	ef 90       	pop	r14
    1358:	08 95       	ret

0000135a <display_clock_minute_set_view>:

void display_clock_minute_set_view()
{
    135a:	ef 92       	push	r14
    135c:	ff 92       	push	r15
    135e:	0f 93       	push	r16
    1360:	1f 93       	push	r17
    1362:	cf 93       	push	r28
    1364:	df 93       	push	r29
	draw_header("CLOCK SET M",timer_is_running(),alarm_is_running());
    1366:	91 de       	rcall	.-734    	; 0x108a <alarm_is_running>
    1368:	ec 01       	movw	r28, r24
    136a:	85 d0       	rcall	.+266    	; 0x1476 <timer_is_running>
    136c:	41 e0       	ldi	r20, 0x01	; 1
    136e:	cd 2b       	or	r28, r29
    1370:	09 f4       	brne	.+2      	; 0x1374 <display_clock_minute_set_view+0x1a>
    1372:	40 e0       	ldi	r20, 0x00	; 0
    1374:	61 e0       	ldi	r22, 0x01	; 1
    1376:	89 2b       	or	r24, r25
    1378:	09 f4       	brne	.+2      	; 0x137c <display_clock_minute_set_view+0x22>
    137a:	60 e0       	ldi	r22, 0x00	; 0
    137c:	84 e4       	ldi	r24, 0x44	; 68
    137e:	91 e0       	ldi	r25, 0x01	; 1
    1380:	57 dc       	rcall	.-1874   	; 0xc30 <draw_header>
	display_clock(selectedHour, selectedMinute, 0, 0, 1, 0);
    1382:	60 91 8f 01 	lds	r22, 0x018F	; 0x80018f <selectedMinute>
    1386:	70 e0       	ldi	r23, 0x00	; 0
    1388:	80 91 91 01 	lds	r24, 0x0191	; 0x800191 <selectedHour>
    138c:	e1 2c       	mov	r14, r1
    138e:	f1 2c       	mov	r15, r1
    1390:	01 e0       	ldi	r16, 0x01	; 1
    1392:	10 e0       	ldi	r17, 0x00	; 0
    1394:	20 e0       	ldi	r18, 0x00	; 0
    1396:	30 e0       	ldi	r19, 0x00	; 0
    1398:	40 e0       	ldi	r20, 0x00	; 0
    139a:	50 e0       	ldi	r21, 0x00	; 0
    139c:	90 e0       	ldi	r25, 0x00	; 0
    139e:	75 df       	rcall	.-278    	; 0x128a <display_clock>
}
    13a0:	df 91       	pop	r29
    13a2:	cf 91       	pop	r28
    13a4:	1f 91       	pop	r17
    13a6:	0f 91       	pop	r16
    13a8:	ff 90       	pop	r15
    13aa:	ef 90       	pop	r14
    13ac:	08 95       	ret

000013ae <display_temperature_view>:

float temperature[1];
float humidity[1];

void display_temperature_view()
{
    13ae:	0f 93       	push	r16
    13b0:	1f 93       	push	r17
    13b2:	cf 93       	push	r28
    13b4:	df 93       	push	r29
    13b6:	cd b7       	in	r28, 0x3d	; 61
    13b8:	de b7       	in	r29, 0x3e	; 62
    13ba:	2a 97       	sbiw	r28, 0x0a	; 10
    13bc:	0f b6       	in	r0, 0x3f	; 63
    13be:	f8 94       	cli
    13c0:	de bf       	out	0x3e, r29	; 62
    13c2:	0f be       	out	0x3f, r0	; 63
    13c4:	cd bf       	out	0x3d, r28	; 61
	draw_header("WEATHER",timer_is_running(),alarm_is_running());
    13c6:	61 de       	rcall	.-830    	; 0x108a <alarm_is_running>
    13c8:	8c 01       	movw	r16, r24
    13ca:	55 d0       	rcall	.+170    	; 0x1476 <timer_is_running>
    13cc:	a8 01       	movw	r20, r16
    13ce:	bc 01       	movw	r22, r24
    13d0:	80 e5       	ldi	r24, 0x50	; 80
    13d2:	91 e0       	ldi	r25, 0x01	; 1
    13d4:	2d dc       	rcall	.-1958   	; 0xc30 <draw_header>
	
	char tempAsChar[5];
	char humAsChar[5];
	
	DHT_Read(temperature, humidity);
    13d6:	66 e9       	ldi	r22, 0x96	; 150
    13d8:	71 e0       	ldi	r23, 0x01	; 1
    13da:	82 e9       	ldi	r24, 0x92	; 146
    13dc:	91 e0       	ldi	r25, 0x01	; 1
    13de:	47 d9       	rcall	.-3442   	; 0x66e <DHT_Read>
	
	ftoa(temperature[0],tempAsChar,1);
    13e0:	60 91 92 01 	lds	r22, 0x0192	; 0x800192 <temperature>
    13e4:	70 91 93 01 	lds	r23, 0x0193	; 0x800193 <temperature+0x1>
    13e8:	80 91 94 01 	lds	r24, 0x0194	; 0x800194 <temperature+0x2>
    13ec:	90 91 95 01 	lds	r25, 0x0195	; 0x800195 <temperature+0x3>
    13f0:	21 e0       	ldi	r18, 0x01	; 1
    13f2:	30 e0       	ldi	r19, 0x00	; 0
    13f4:	ae 01       	movw	r20, r28
    13f6:	4f 5f       	subi	r20, 0xFF	; 255
    13f8:	5f 4f       	sbci	r21, 0xFF	; 255
    13fa:	4d db       	rcall	.-2406   	; 0xa96 <ftoa>
	ftoa(humidity[0],humAsChar,2);
    13fc:	60 91 96 01 	lds	r22, 0x0196	; 0x800196 <humidity>
    1400:	70 91 97 01 	lds	r23, 0x0197	; 0x800197 <humidity+0x1>
    1404:	80 91 98 01 	lds	r24, 0x0198	; 0x800198 <humidity+0x2>
    1408:	90 91 99 01 	lds	r25, 0x0199	; 0x800199 <humidity+0x3>
    140c:	22 e0       	ldi	r18, 0x02	; 2
    140e:	30 e0       	ldi	r19, 0x00	; 0
    1410:	ae 01       	movw	r20, r28
    1412:	4a 5f       	subi	r20, 0xFA	; 250
    1414:	5f 4f       	sbci	r21, 0xFF	; 255
    1416:	3f db       	rcall	.-2434   	; 0xa96 <ftoa>
	
	switch (DHT_GetStatus())
    1418:	5e d8       	rcall	.-3908   	; 0x4d6 <DHT_GetStatus>
    141a:	81 11       	cpse	r24, r1
    141c:	1e c0       	rjmp	.+60     	; 0x145a <display_temperature_view+0xac>
	{
		case (DHT_Ok):
		draw_string(0, 2, "TEMP");
    141e:	48 e5       	ldi	r20, 0x58	; 88
    1420:	51 e0       	ldi	r21, 0x01	; 1
    1422:	62 e0       	ldi	r22, 0x02	; 2
    1424:	70 e0       	ldi	r23, 0x00	; 0
    1426:	80 e0       	ldi	r24, 0x00	; 0
    1428:	90 e0       	ldi	r25, 0x00	; 0
    142a:	d7 da       	rcall	.-2642   	; 0x9da <draw_string>
		draw_string(50,2,tempAsChar);
    142c:	ae 01       	movw	r20, r28
    142e:	4f 5f       	subi	r20, 0xFF	; 255
    1430:	5f 4f       	sbci	r21, 0xFF	; 255
    1432:	62 e0       	ldi	r22, 0x02	; 2
    1434:	70 e0       	ldi	r23, 0x00	; 0
    1436:	82 e3       	ldi	r24, 0x32	; 50
    1438:	90 e0       	ldi	r25, 0x00	; 0
    143a:	cf da       	rcall	.-2658   	; 0x9da <draw_string>
		draw_string(0, 4, "HUM");
    143c:	4d e5       	ldi	r20, 0x5D	; 93
    143e:	51 e0       	ldi	r21, 0x01	; 1
    1440:	64 e0       	ldi	r22, 0x04	; 4
    1442:	70 e0       	ldi	r23, 0x00	; 0
    1444:	80 e0       	ldi	r24, 0x00	; 0
    1446:	90 e0       	ldi	r25, 0x00	; 0
    1448:	c8 da       	rcall	.-2672   	; 0x9da <draw_string>
		draw_string(50,4,humAsChar);
    144a:	ae 01       	movw	r20, r28
    144c:	4a 5f       	subi	r20, 0xFA	; 250
    144e:	5f 4f       	sbci	r21, 0xFF	; 255
    1450:	64 e0       	ldi	r22, 0x04	; 4
    1452:	70 e0       	ldi	r23, 0x00	; 0
    1454:	82 e3       	ldi	r24, 0x32	; 50
    1456:	90 e0       	ldi	r25, 0x00	; 0
    1458:	c0 da       	rcall	.-2688   	; 0x9da <draw_string>
		break;
	}
}
    145a:	2a 96       	adiw	r28, 0x0a	; 10
    145c:	0f b6       	in	r0, 0x3f	; 63
    145e:	f8 94       	cli
    1460:	de bf       	out	0x3e, r29	; 62
    1462:	0f be       	out	0x3f, r0	; 63
    1464:	cd bf       	out	0x3d, r28	; 61
    1466:	df 91       	pop	r29
    1468:	cf 91       	pop	r28
    146a:	1f 91       	pop	r17
    146c:	0f 91       	pop	r16
    146e:	08 95       	ret

00001470 <timer_is_ready>:

int8_t timerExpectedHour = 0;
int8_t timerExpectedMinute = 0;
int8_t timerExpectedSecond = 0;

bool timer_is_ready(){ return timerIsReady;}
    1470:	80 91 9a 01 	lds	r24, 0x019A	; 0x80019a <timerIsReady>
    1474:	08 95       	ret

00001476 <timer_is_running>:
bool timer_is_running(){ return timerIsRunning;}
    1476:	80 91 9b 01 	lds	r24, 0x019B	; 0x80019b <timerIsRunning>
    147a:	08 95       	ret

0000147c <timer_reset>:

void timer_reset()
{
	PORTD |= LED1;
    147c:	5f 9a       	sbi	0x0b, 7	; 11
	PORTD &= ~BUZZER;
    147e:	5d 98       	cbi	0x0b, 5	; 11
	
	reset();
    1480:	8a dd       	rcall	.-1260   	; 0xf96 <reset>
	
	timerIsReady = 0;
    1482:	10 92 9a 01 	sts	0x019A, r1	; 0x80019a <timerIsReady>
	timerIsRunning = 0;
    1486:	10 92 9b 01 	sts	0x019B, r1	; 0x80019b <timerIsRunning>
	
	timerExpectedHour = 0;
    148a:	10 92 87 01 	sts	0x0187, r1	; 0x800187 <timerExpectedHour>
	timerExpectedMinute = 0;
    148e:	10 92 86 01 	sts	0x0186, r1	; 0x800186 <timerExpectedMinute>
	timerExpectedSecond = 0;
    1492:	10 92 85 01 	sts	0x0185, r1	; 0x800185 <timerExpectedSecond>
    1496:	08 95       	ret

00001498 <timer_run>:
}

void timer_run()
{
	if(timerIsRunning == 0)
    1498:	80 91 9b 01 	lds	r24, 0x019B	; 0x80019b <timerIsRunning>
    149c:	81 11       	cpse	r24, r1
    149e:	0d c0       	rjmp	.+26     	; 0x14ba <timer_run+0x22>
	{
		timerExpectedSecond = 0;
    14a0:	10 92 85 01 	sts	0x0185, r1	; 0x800185 <timerExpectedSecond>
		timerExpectedHour = selectedHour;
    14a4:	80 91 91 01 	lds	r24, 0x0191	; 0x800191 <selectedHour>
    14a8:	80 93 87 01 	sts	0x0187, r24	; 0x800187 <timerExpectedHour>
		timerExpectedMinute = selectedMinute;
    14ac:	80 91 8f 01 	lds	r24, 0x018F	; 0x80018f <selectedMinute>
    14b0:	80 93 86 01 	sts	0x0186, r24	; 0x800186 <timerExpectedMinute>
		timerIsRunning = 1;
    14b4:	81 e0       	ldi	r24, 0x01	; 1
    14b6:	80 93 9b 01 	sts	0x019B, r24	; 0x80019b <timerIsRunning>
    14ba:	08 95       	ret

000014bc <timer_trigger>:
	}
}

void timer_trigger()
{	
	if(timerIsReady == 0 && timerIsRunning == 1)
    14bc:	80 91 9a 01 	lds	r24, 0x019A	; 0x80019a <timerIsReady>
    14c0:	81 11       	cpse	r24, r1
    14c2:	36 c0       	rjmp	.+108    	; 0x1530 <timer_trigger+0x74>
    14c4:	80 91 9b 01 	lds	r24, 0x019B	; 0x80019b <timerIsRunning>
    14c8:	88 23       	and	r24, r24
    14ca:	91 f1       	breq	.+100    	; 0x1530 <timer_trigger+0x74>
	{
		if(timerExpectedSecond == 0 && timerExpectedMinute == 0 && timerExpectedHour == 0)
    14cc:	80 91 85 01 	lds	r24, 0x0185	; 0x800185 <timerExpectedSecond>
    14d0:	81 11       	cpse	r24, r1
    14d2:	0c c0       	rjmp	.+24     	; 0x14ec <timer_trigger+0x30>
    14d4:	80 91 86 01 	lds	r24, 0x0186	; 0x800186 <timerExpectedMinute>
    14d8:	81 11       	cpse	r24, r1
    14da:	26 c0       	rjmp	.+76     	; 0x1528 <timer_trigger+0x6c>
    14dc:	80 91 87 01 	lds	r24, 0x0187	; 0x800187 <timerExpectedHour>
    14e0:	81 11       	cpse	r24, r1
    14e2:	22 c0       	rjmp	.+68     	; 0x1528 <timer_trigger+0x6c>
		{
			timerIsReady = 1;
    14e4:	81 e0       	ldi	r24, 0x01	; 1
    14e6:	80 93 9a 01 	sts	0x019A, r24	; 0x80019a <timerIsReady>
    14ea:	08 95       	ret
		}
		else
		{
			timerExpectedSecond--;
    14ec:	81 50       	subi	r24, 0x01	; 1
    14ee:	80 93 85 01 	sts	0x0185, r24	; 0x800185 <timerExpectedSecond>
			
			if(timerExpectedSecond < 0 && timerExpectedMinute >= 0)
    14f2:	88 23       	and	r24, r24
    14f4:	54 f4       	brge	.+20     	; 0x150a <timer_trigger+0x4e>
    14f6:	80 91 86 01 	lds	r24, 0x0186	; 0x800186 <timerExpectedMinute>
    14fa:	88 23       	and	r24, r24
    14fc:	54 f0       	brlt	.+20     	; 0x1512 <timer_trigger+0x56>
			{
				timerExpectedSecond = SECONDS_IN_MINUTE - 1;
    14fe:	9b e3       	ldi	r25, 0x3B	; 59
    1500:	90 93 85 01 	sts	0x0185, r25	; 0x800185 <timerExpectedSecond>
				timerExpectedMinute--;
    1504:	81 50       	subi	r24, 0x01	; 1
    1506:	80 93 86 01 	sts	0x0186, r24	; 0x800186 <timerExpectedMinute>
			}
			
			if(timerExpectedMinute < 0 && timerExpectedHour > 0)
    150a:	80 91 86 01 	lds	r24, 0x0186	; 0x800186 <timerExpectedMinute>
    150e:	88 23       	and	r24, r24
    1510:	7c f4       	brge	.+30     	; 0x1530 <timer_trigger+0x74>
    1512:	80 91 87 01 	lds	r24, 0x0187	; 0x800187 <timerExpectedHour>
    1516:	18 16       	cp	r1, r24
    1518:	5c f4       	brge	.+22     	; 0x1530 <timer_trigger+0x74>
			{
				timerExpectedMinute = MINUTES_IN_HOUR - 1;
    151a:	9b e3       	ldi	r25, 0x3B	; 59
    151c:	90 93 86 01 	sts	0x0186, r25	; 0x800186 <timerExpectedMinute>
				timerExpectedHour--;
    1520:	81 50       	subi	r24, 0x01	; 1
    1522:	80 93 87 01 	sts	0x0187, r24	; 0x800187 <timerExpectedHour>
			}
		}
	}
}
    1526:	08 95       	ret
		{
			timerIsReady = 1;
		}
		else
		{
			timerExpectedSecond--;
    1528:	8f ef       	ldi	r24, 0xFF	; 255
    152a:	80 93 85 01 	sts	0x0185, r24	; 0x800185 <timerExpectedSecond>
    152e:	e3 cf       	rjmp	.-58     	; 0x14f6 <timer_trigger+0x3a>
    1530:	08 95       	ret

00001532 <display_timer>:
	draw_header("TIMER SET M",timer_is_running(),alarm_is_running());
	display_timer(0,1,0);
}

void display_timer(bool displayHour, bool displayMinute, bool displaySecond)
{
    1532:	af 92       	push	r10
    1534:	cf 92       	push	r12
    1536:	ef 92       	push	r14
    1538:	0f 93       	push	r16
	if(timerIsRunning == 0)
    153a:	90 91 9b 01 	lds	r25, 0x019B	; 0x80019b <timerIsRunning>
    153e:	91 11       	cpse	r25, r1
    1540:	0c c0       	rjmp	.+24     	; 0x155a <display_timer+0x28>
	{
		draw_clock(0,2, selectedHour, selectedMinute,0, displayHour, displayMinute, displaySecond);
    1542:	a4 2e       	mov	r10, r20
    1544:	c6 2e       	mov	r12, r22
    1546:	e8 2e       	mov	r14, r24
    1548:	00 e0       	ldi	r16, 0x00	; 0
    154a:	20 91 8f 01 	lds	r18, 0x018F	; 0x80018f <selectedMinute>
    154e:	40 91 91 01 	lds	r20, 0x0191	; 0x800191 <selectedHour>
    1552:	62 e0       	ldi	r22, 0x02	; 2
    1554:	80 e0       	ldi	r24, 0x00	; 0
    1556:	2e db       	rcall	.-2468   	; 0xbb4 <draw_clock>
    1558:	13 c0       	rjmp	.+38     	; 0x1580 <display_timer+0x4e>
	}
	else if(timerIsRunning == 1 && timerIsReady == 0)
    155a:	90 91 9a 01 	lds	r25, 0x019A	; 0x80019a <timerIsReady>
    155e:	91 11       	cpse	r25, r1
    1560:	0d c0       	rjmp	.+26     	; 0x157c <display_timer+0x4a>
	{
		draw_clock(0,2, timerExpectedHour, timerExpectedMinute, timerExpectedSecond, displayHour, displayMinute, displaySecond);
    1562:	a4 2e       	mov	r10, r20
    1564:	c6 2e       	mov	r12, r22
    1566:	e8 2e       	mov	r14, r24
    1568:	00 91 85 01 	lds	r16, 0x0185	; 0x800185 <timerExpectedSecond>
    156c:	20 91 86 01 	lds	r18, 0x0186	; 0x800186 <timerExpectedMinute>
    1570:	40 91 87 01 	lds	r20, 0x0187	; 0x800187 <timerExpectedHour>
    1574:	62 e0       	ldi	r22, 0x02	; 2
    1576:	80 e0       	ldi	r24, 0x00	; 0
    1578:	1d db       	rcall	.-2502   	; 0xbb4 <draw_clock>
    157a:	02 c0       	rjmp	.+4      	; 0x1580 <display_timer+0x4e>
	}
	else
	{
		draw_its_time();
    157c:	49 db       	rcall	.-2414   	; 0xc10 <draw_its_time>
		play_timer_sound();
    157e:	10 da       	rcall	.-3040   	; 0x9a0 <play_timer_sound>
	}
}
    1580:	0f 91       	pop	r16
    1582:	ef 90       	pop	r14
    1584:	cf 90       	pop	r12
    1586:	af 90       	pop	r10
    1588:	08 95       	ret

0000158a <display_timer_view>:
	}
}

void display_timer_view()
{
	draw_header("TIMER",timer_is_running(),alarm_is_running());
    158a:	7f dd       	rcall	.-1282   	; 0x108a <alarm_is_running>
    158c:	41 e0       	ldi	r20, 0x01	; 1
    158e:	89 2b       	or	r24, r25
    1590:	09 f4       	brne	.+2      	; 0x1594 <display_timer_view+0xa>
    1592:	40 e0       	ldi	r20, 0x00	; 0
    1594:	60 91 9b 01 	lds	r22, 0x019B	; 0x80019b <timerIsRunning>
    1598:	81 e6       	ldi	r24, 0x61	; 97
    159a:	91 e0       	ldi	r25, 0x01	; 1
    159c:	49 db       	rcall	.-2414   	; 0xc30 <draw_header>
	display_timer(1,1,1);
    159e:	41 e0       	ldi	r20, 0x01	; 1
    15a0:	50 e0       	ldi	r21, 0x00	; 0
    15a2:	61 e0       	ldi	r22, 0x01	; 1
    15a4:	70 e0       	ldi	r23, 0x00	; 0
    15a6:	81 e0       	ldi	r24, 0x01	; 1
    15a8:	90 e0       	ldi	r25, 0x00	; 0
    15aa:	c3 df       	rcall	.-122    	; 0x1532 <display_timer>
    15ac:	08 95       	ret

000015ae <display_timer_hour_set_view>:
}

void display_timer_hour_set_view()
{
	draw_header("TIMER SET H",timer_is_running(),alarm_is_running());
    15ae:	6d dd       	rcall	.-1318   	; 0x108a <alarm_is_running>
    15b0:	41 e0       	ldi	r20, 0x01	; 1
    15b2:	89 2b       	or	r24, r25
    15b4:	09 f4       	brne	.+2      	; 0x15b8 <display_timer_hour_set_view+0xa>
    15b6:	40 e0       	ldi	r20, 0x00	; 0
    15b8:	60 91 9b 01 	lds	r22, 0x019B	; 0x80019b <timerIsRunning>
    15bc:	87 e6       	ldi	r24, 0x67	; 103
    15be:	91 e0       	ldi	r25, 0x01	; 1
    15c0:	37 db       	rcall	.-2450   	; 0xc30 <draw_header>
	display_timer(1,0,0);
    15c2:	40 e0       	ldi	r20, 0x00	; 0
    15c4:	50 e0       	ldi	r21, 0x00	; 0
    15c6:	60 e0       	ldi	r22, 0x00	; 0
    15c8:	70 e0       	ldi	r23, 0x00	; 0
    15ca:	81 e0       	ldi	r24, 0x01	; 1
    15cc:	90 e0       	ldi	r25, 0x00	; 0
    15ce:	b1 df       	rcall	.-158    	; 0x1532 <display_timer>
    15d0:	08 95       	ret

000015d2 <display_timer_minute_set_view>:
}

void display_timer_minute_set_view()
{
	draw_header("TIMER SET M",timer_is_running(),alarm_is_running());
    15d2:	5b dd       	rcall	.-1354   	; 0x108a <alarm_is_running>
    15d4:	41 e0       	ldi	r20, 0x01	; 1
    15d6:	89 2b       	or	r24, r25
    15d8:	09 f4       	brne	.+2      	; 0x15dc <display_timer_minute_set_view+0xa>
    15da:	40 e0       	ldi	r20, 0x00	; 0
    15dc:	60 91 9b 01 	lds	r22, 0x019B	; 0x80019b <timerIsRunning>
    15e0:	83 e7       	ldi	r24, 0x73	; 115
    15e2:	91 e0       	ldi	r25, 0x01	; 1
    15e4:	25 db       	rcall	.-2486   	; 0xc30 <draw_header>
	display_timer(0,1,0);
    15e6:	40 e0       	ldi	r20, 0x00	; 0
    15e8:	50 e0       	ldi	r21, 0x00	; 0
    15ea:	61 e0       	ldi	r22, 0x01	; 1
    15ec:	70 e0       	ldi	r23, 0x00	; 0
    15ee:	80 e0       	ldi	r24, 0x00	; 0
    15f0:	90 e0       	ldi	r25, 0x00	; 0
    15f2:	9f df       	rcall	.-194    	; 0x1532 <display_timer>
    15f4:	08 95       	ret

000015f6 <__subsf3>:
    15f6:	50 58       	subi	r21, 0x80	; 128

000015f8 <__addsf3>:
    15f8:	bb 27       	eor	r27, r27
    15fa:	aa 27       	eor	r26, r26
    15fc:	0e d0       	rcall	.+28     	; 0x161a <__addsf3x>
    15fe:	75 c1       	rjmp	.+746    	; 0x18ea <__fp_round>
    1600:	66 d1       	rcall	.+716    	; 0x18ce <__fp_pscA>
    1602:	30 f0       	brcs	.+12     	; 0x1610 <__addsf3+0x18>
    1604:	6b d1       	rcall	.+726    	; 0x18dc <__fp_pscB>
    1606:	20 f0       	brcs	.+8      	; 0x1610 <__addsf3+0x18>
    1608:	31 f4       	brne	.+12     	; 0x1616 <__addsf3+0x1e>
    160a:	9f 3f       	cpi	r25, 0xFF	; 255
    160c:	11 f4       	brne	.+4      	; 0x1612 <__addsf3+0x1a>
    160e:	1e f4       	brtc	.+6      	; 0x1616 <__addsf3+0x1e>
    1610:	5b c1       	rjmp	.+694    	; 0x18c8 <__fp_nan>
    1612:	0e f4       	brtc	.+2      	; 0x1616 <__addsf3+0x1e>
    1614:	e0 95       	com	r30
    1616:	e7 fb       	bst	r30, 7
    1618:	51 c1       	rjmp	.+674    	; 0x18bc <__fp_inf>

0000161a <__addsf3x>:
    161a:	e9 2f       	mov	r30, r25
    161c:	77 d1       	rcall	.+750    	; 0x190c <__fp_split3>
    161e:	80 f3       	brcs	.-32     	; 0x1600 <__addsf3+0x8>
    1620:	ba 17       	cp	r27, r26
    1622:	62 07       	cpc	r22, r18
    1624:	73 07       	cpc	r23, r19
    1626:	84 07       	cpc	r24, r20
    1628:	95 07       	cpc	r25, r21
    162a:	18 f0       	brcs	.+6      	; 0x1632 <__addsf3x+0x18>
    162c:	71 f4       	brne	.+28     	; 0x164a <__addsf3x+0x30>
    162e:	9e f5       	brtc	.+102    	; 0x1696 <__addsf3x+0x7c>
    1630:	8f c1       	rjmp	.+798    	; 0x1950 <__fp_zero>
    1632:	0e f4       	brtc	.+2      	; 0x1636 <__addsf3x+0x1c>
    1634:	e0 95       	com	r30
    1636:	0b 2e       	mov	r0, r27
    1638:	ba 2f       	mov	r27, r26
    163a:	a0 2d       	mov	r26, r0
    163c:	0b 01       	movw	r0, r22
    163e:	b9 01       	movw	r22, r18
    1640:	90 01       	movw	r18, r0
    1642:	0c 01       	movw	r0, r24
    1644:	ca 01       	movw	r24, r20
    1646:	a0 01       	movw	r20, r0
    1648:	11 24       	eor	r1, r1
    164a:	ff 27       	eor	r31, r31
    164c:	59 1b       	sub	r21, r25
    164e:	99 f0       	breq	.+38     	; 0x1676 <__addsf3x+0x5c>
    1650:	59 3f       	cpi	r21, 0xF9	; 249
    1652:	50 f4       	brcc	.+20     	; 0x1668 <__addsf3x+0x4e>
    1654:	50 3e       	cpi	r21, 0xE0	; 224
    1656:	68 f1       	brcs	.+90     	; 0x16b2 <__addsf3x+0x98>
    1658:	1a 16       	cp	r1, r26
    165a:	f0 40       	sbci	r31, 0x00	; 0
    165c:	a2 2f       	mov	r26, r18
    165e:	23 2f       	mov	r18, r19
    1660:	34 2f       	mov	r19, r20
    1662:	44 27       	eor	r20, r20
    1664:	58 5f       	subi	r21, 0xF8	; 248
    1666:	f3 cf       	rjmp	.-26     	; 0x164e <__addsf3x+0x34>
    1668:	46 95       	lsr	r20
    166a:	37 95       	ror	r19
    166c:	27 95       	ror	r18
    166e:	a7 95       	ror	r26
    1670:	f0 40       	sbci	r31, 0x00	; 0
    1672:	53 95       	inc	r21
    1674:	c9 f7       	brne	.-14     	; 0x1668 <__addsf3x+0x4e>
    1676:	7e f4       	brtc	.+30     	; 0x1696 <__addsf3x+0x7c>
    1678:	1f 16       	cp	r1, r31
    167a:	ba 0b       	sbc	r27, r26
    167c:	62 0b       	sbc	r22, r18
    167e:	73 0b       	sbc	r23, r19
    1680:	84 0b       	sbc	r24, r20
    1682:	ba f0       	brmi	.+46     	; 0x16b2 <__addsf3x+0x98>
    1684:	91 50       	subi	r25, 0x01	; 1
    1686:	a1 f0       	breq	.+40     	; 0x16b0 <__addsf3x+0x96>
    1688:	ff 0f       	add	r31, r31
    168a:	bb 1f       	adc	r27, r27
    168c:	66 1f       	adc	r22, r22
    168e:	77 1f       	adc	r23, r23
    1690:	88 1f       	adc	r24, r24
    1692:	c2 f7       	brpl	.-16     	; 0x1684 <__addsf3x+0x6a>
    1694:	0e c0       	rjmp	.+28     	; 0x16b2 <__addsf3x+0x98>
    1696:	ba 0f       	add	r27, r26
    1698:	62 1f       	adc	r22, r18
    169a:	73 1f       	adc	r23, r19
    169c:	84 1f       	adc	r24, r20
    169e:	48 f4       	brcc	.+18     	; 0x16b2 <__addsf3x+0x98>
    16a0:	87 95       	ror	r24
    16a2:	77 95       	ror	r23
    16a4:	67 95       	ror	r22
    16a6:	b7 95       	ror	r27
    16a8:	f7 95       	ror	r31
    16aa:	9e 3f       	cpi	r25, 0xFE	; 254
    16ac:	08 f0       	brcs	.+2      	; 0x16b0 <__addsf3x+0x96>
    16ae:	b3 cf       	rjmp	.-154    	; 0x1616 <__addsf3+0x1e>
    16b0:	93 95       	inc	r25
    16b2:	88 0f       	add	r24, r24
    16b4:	08 f0       	brcs	.+2      	; 0x16b8 <__addsf3x+0x9e>
    16b6:	99 27       	eor	r25, r25
    16b8:	ee 0f       	add	r30, r30
    16ba:	97 95       	ror	r25
    16bc:	87 95       	ror	r24
    16be:	08 95       	ret

000016c0 <__cmpsf2>:
    16c0:	d9 d0       	rcall	.+434    	; 0x1874 <__fp_cmp>
    16c2:	08 f4       	brcc	.+2      	; 0x16c6 <__cmpsf2+0x6>
    16c4:	81 e0       	ldi	r24, 0x01	; 1
    16c6:	08 95       	ret

000016c8 <__divsf3>:
    16c8:	0c d0       	rcall	.+24     	; 0x16e2 <__divsf3x>
    16ca:	0f c1       	rjmp	.+542    	; 0x18ea <__fp_round>
    16cc:	07 d1       	rcall	.+526    	; 0x18dc <__fp_pscB>
    16ce:	40 f0       	brcs	.+16     	; 0x16e0 <__divsf3+0x18>
    16d0:	fe d0       	rcall	.+508    	; 0x18ce <__fp_pscA>
    16d2:	30 f0       	brcs	.+12     	; 0x16e0 <__divsf3+0x18>
    16d4:	21 f4       	brne	.+8      	; 0x16de <__divsf3+0x16>
    16d6:	5f 3f       	cpi	r21, 0xFF	; 255
    16d8:	19 f0       	breq	.+6      	; 0x16e0 <__divsf3+0x18>
    16da:	f0 c0       	rjmp	.+480    	; 0x18bc <__fp_inf>
    16dc:	51 11       	cpse	r21, r1
    16de:	39 c1       	rjmp	.+626    	; 0x1952 <__fp_szero>
    16e0:	f3 c0       	rjmp	.+486    	; 0x18c8 <__fp_nan>

000016e2 <__divsf3x>:
    16e2:	14 d1       	rcall	.+552    	; 0x190c <__fp_split3>
    16e4:	98 f3       	brcs	.-26     	; 0x16cc <__divsf3+0x4>

000016e6 <__divsf3_pse>:
    16e6:	99 23       	and	r25, r25
    16e8:	c9 f3       	breq	.-14     	; 0x16dc <__divsf3+0x14>
    16ea:	55 23       	and	r21, r21
    16ec:	b1 f3       	breq	.-20     	; 0x16da <__divsf3+0x12>
    16ee:	95 1b       	sub	r25, r21
    16f0:	55 0b       	sbc	r21, r21
    16f2:	bb 27       	eor	r27, r27
    16f4:	aa 27       	eor	r26, r26
    16f6:	62 17       	cp	r22, r18
    16f8:	73 07       	cpc	r23, r19
    16fa:	84 07       	cpc	r24, r20
    16fc:	38 f0       	brcs	.+14     	; 0x170c <__divsf3_pse+0x26>
    16fe:	9f 5f       	subi	r25, 0xFF	; 255
    1700:	5f 4f       	sbci	r21, 0xFF	; 255
    1702:	22 0f       	add	r18, r18
    1704:	33 1f       	adc	r19, r19
    1706:	44 1f       	adc	r20, r20
    1708:	aa 1f       	adc	r26, r26
    170a:	a9 f3       	breq	.-22     	; 0x16f6 <__divsf3_pse+0x10>
    170c:	33 d0       	rcall	.+102    	; 0x1774 <__divsf3_pse+0x8e>
    170e:	0e 2e       	mov	r0, r30
    1710:	3a f0       	brmi	.+14     	; 0x1720 <__divsf3_pse+0x3a>
    1712:	e0 e8       	ldi	r30, 0x80	; 128
    1714:	30 d0       	rcall	.+96     	; 0x1776 <__divsf3_pse+0x90>
    1716:	91 50       	subi	r25, 0x01	; 1
    1718:	50 40       	sbci	r21, 0x00	; 0
    171a:	e6 95       	lsr	r30
    171c:	00 1c       	adc	r0, r0
    171e:	ca f7       	brpl	.-14     	; 0x1712 <__divsf3_pse+0x2c>
    1720:	29 d0       	rcall	.+82     	; 0x1774 <__divsf3_pse+0x8e>
    1722:	fe 2f       	mov	r31, r30
    1724:	27 d0       	rcall	.+78     	; 0x1774 <__divsf3_pse+0x8e>
    1726:	66 0f       	add	r22, r22
    1728:	77 1f       	adc	r23, r23
    172a:	88 1f       	adc	r24, r24
    172c:	bb 1f       	adc	r27, r27
    172e:	26 17       	cp	r18, r22
    1730:	37 07       	cpc	r19, r23
    1732:	48 07       	cpc	r20, r24
    1734:	ab 07       	cpc	r26, r27
    1736:	b0 e8       	ldi	r27, 0x80	; 128
    1738:	09 f0       	breq	.+2      	; 0x173c <__divsf3_pse+0x56>
    173a:	bb 0b       	sbc	r27, r27
    173c:	80 2d       	mov	r24, r0
    173e:	bf 01       	movw	r22, r30
    1740:	ff 27       	eor	r31, r31
    1742:	93 58       	subi	r25, 0x83	; 131
    1744:	5f 4f       	sbci	r21, 0xFF	; 255
    1746:	2a f0       	brmi	.+10     	; 0x1752 <__divsf3_pse+0x6c>
    1748:	9e 3f       	cpi	r25, 0xFE	; 254
    174a:	51 05       	cpc	r21, r1
    174c:	68 f0       	brcs	.+26     	; 0x1768 <__divsf3_pse+0x82>
    174e:	b6 c0       	rjmp	.+364    	; 0x18bc <__fp_inf>
    1750:	00 c1       	rjmp	.+512    	; 0x1952 <__fp_szero>
    1752:	5f 3f       	cpi	r21, 0xFF	; 255
    1754:	ec f3       	brlt	.-6      	; 0x1750 <__divsf3_pse+0x6a>
    1756:	98 3e       	cpi	r25, 0xE8	; 232
    1758:	dc f3       	brlt	.-10     	; 0x1750 <__divsf3_pse+0x6a>
    175a:	86 95       	lsr	r24
    175c:	77 95       	ror	r23
    175e:	67 95       	ror	r22
    1760:	b7 95       	ror	r27
    1762:	f7 95       	ror	r31
    1764:	9f 5f       	subi	r25, 0xFF	; 255
    1766:	c9 f7       	brne	.-14     	; 0x175a <__divsf3_pse+0x74>
    1768:	88 0f       	add	r24, r24
    176a:	91 1d       	adc	r25, r1
    176c:	96 95       	lsr	r25
    176e:	87 95       	ror	r24
    1770:	97 f9       	bld	r25, 7
    1772:	08 95       	ret
    1774:	e1 e0       	ldi	r30, 0x01	; 1
    1776:	66 0f       	add	r22, r22
    1778:	77 1f       	adc	r23, r23
    177a:	88 1f       	adc	r24, r24
    177c:	bb 1f       	adc	r27, r27
    177e:	62 17       	cp	r22, r18
    1780:	73 07       	cpc	r23, r19
    1782:	84 07       	cpc	r24, r20
    1784:	ba 07       	cpc	r27, r26
    1786:	20 f0       	brcs	.+8      	; 0x1790 <__divsf3_pse+0xaa>
    1788:	62 1b       	sub	r22, r18
    178a:	73 0b       	sbc	r23, r19
    178c:	84 0b       	sbc	r24, r20
    178e:	ba 0b       	sbc	r27, r26
    1790:	ee 1f       	adc	r30, r30
    1792:	88 f7       	brcc	.-30     	; 0x1776 <__divsf3_pse+0x90>
    1794:	e0 95       	com	r30
    1796:	08 95       	ret

00001798 <__fixsfsi>:
    1798:	04 d0       	rcall	.+8      	; 0x17a2 <__fixunssfsi>
    179a:	68 94       	set
    179c:	b1 11       	cpse	r27, r1
    179e:	d9 c0       	rjmp	.+434    	; 0x1952 <__fp_szero>
    17a0:	08 95       	ret

000017a2 <__fixunssfsi>:
    17a2:	bc d0       	rcall	.+376    	; 0x191c <__fp_splitA>
    17a4:	88 f0       	brcs	.+34     	; 0x17c8 <__fixunssfsi+0x26>
    17a6:	9f 57       	subi	r25, 0x7F	; 127
    17a8:	90 f0       	brcs	.+36     	; 0x17ce <__fixunssfsi+0x2c>
    17aa:	b9 2f       	mov	r27, r25
    17ac:	99 27       	eor	r25, r25
    17ae:	b7 51       	subi	r27, 0x17	; 23
    17b0:	a0 f0       	brcs	.+40     	; 0x17da <__fixunssfsi+0x38>
    17b2:	d1 f0       	breq	.+52     	; 0x17e8 <__fixunssfsi+0x46>
    17b4:	66 0f       	add	r22, r22
    17b6:	77 1f       	adc	r23, r23
    17b8:	88 1f       	adc	r24, r24
    17ba:	99 1f       	adc	r25, r25
    17bc:	1a f0       	brmi	.+6      	; 0x17c4 <__fixunssfsi+0x22>
    17be:	ba 95       	dec	r27
    17c0:	c9 f7       	brne	.-14     	; 0x17b4 <__fixunssfsi+0x12>
    17c2:	12 c0       	rjmp	.+36     	; 0x17e8 <__fixunssfsi+0x46>
    17c4:	b1 30       	cpi	r27, 0x01	; 1
    17c6:	81 f0       	breq	.+32     	; 0x17e8 <__fixunssfsi+0x46>
    17c8:	c3 d0       	rcall	.+390    	; 0x1950 <__fp_zero>
    17ca:	b1 e0       	ldi	r27, 0x01	; 1
    17cc:	08 95       	ret
    17ce:	c0 c0       	rjmp	.+384    	; 0x1950 <__fp_zero>
    17d0:	67 2f       	mov	r22, r23
    17d2:	78 2f       	mov	r23, r24
    17d4:	88 27       	eor	r24, r24
    17d6:	b8 5f       	subi	r27, 0xF8	; 248
    17d8:	39 f0       	breq	.+14     	; 0x17e8 <__fixunssfsi+0x46>
    17da:	b9 3f       	cpi	r27, 0xF9	; 249
    17dc:	cc f3       	brlt	.-14     	; 0x17d0 <__fixunssfsi+0x2e>
    17de:	86 95       	lsr	r24
    17e0:	77 95       	ror	r23
    17e2:	67 95       	ror	r22
    17e4:	b3 95       	inc	r27
    17e6:	d9 f7       	brne	.-10     	; 0x17de <__fixunssfsi+0x3c>
    17e8:	3e f4       	brtc	.+14     	; 0x17f8 <__fixunssfsi+0x56>
    17ea:	90 95       	com	r25
    17ec:	80 95       	com	r24
    17ee:	70 95       	com	r23
    17f0:	61 95       	neg	r22
    17f2:	7f 4f       	sbci	r23, 0xFF	; 255
    17f4:	8f 4f       	sbci	r24, 0xFF	; 255
    17f6:	9f 4f       	sbci	r25, 0xFF	; 255
    17f8:	08 95       	ret

000017fa <__floatunsisf>:
    17fa:	e8 94       	clt
    17fc:	09 c0       	rjmp	.+18     	; 0x1810 <__floatsisf+0x12>

000017fe <__floatsisf>:
    17fe:	97 fb       	bst	r25, 7
    1800:	3e f4       	brtc	.+14     	; 0x1810 <__floatsisf+0x12>
    1802:	90 95       	com	r25
    1804:	80 95       	com	r24
    1806:	70 95       	com	r23
    1808:	61 95       	neg	r22
    180a:	7f 4f       	sbci	r23, 0xFF	; 255
    180c:	8f 4f       	sbci	r24, 0xFF	; 255
    180e:	9f 4f       	sbci	r25, 0xFF	; 255
    1810:	99 23       	and	r25, r25
    1812:	a9 f0       	breq	.+42     	; 0x183e <__floatsisf+0x40>
    1814:	f9 2f       	mov	r31, r25
    1816:	96 e9       	ldi	r25, 0x96	; 150
    1818:	bb 27       	eor	r27, r27
    181a:	93 95       	inc	r25
    181c:	f6 95       	lsr	r31
    181e:	87 95       	ror	r24
    1820:	77 95       	ror	r23
    1822:	67 95       	ror	r22
    1824:	b7 95       	ror	r27
    1826:	f1 11       	cpse	r31, r1
    1828:	f8 cf       	rjmp	.-16     	; 0x181a <__floatsisf+0x1c>
    182a:	fa f4       	brpl	.+62     	; 0x186a <__floatsisf+0x6c>
    182c:	bb 0f       	add	r27, r27
    182e:	11 f4       	brne	.+4      	; 0x1834 <__floatsisf+0x36>
    1830:	60 ff       	sbrs	r22, 0
    1832:	1b c0       	rjmp	.+54     	; 0x186a <__floatsisf+0x6c>
    1834:	6f 5f       	subi	r22, 0xFF	; 255
    1836:	7f 4f       	sbci	r23, 0xFF	; 255
    1838:	8f 4f       	sbci	r24, 0xFF	; 255
    183a:	9f 4f       	sbci	r25, 0xFF	; 255
    183c:	16 c0       	rjmp	.+44     	; 0x186a <__floatsisf+0x6c>
    183e:	88 23       	and	r24, r24
    1840:	11 f0       	breq	.+4      	; 0x1846 <__floatsisf+0x48>
    1842:	96 e9       	ldi	r25, 0x96	; 150
    1844:	11 c0       	rjmp	.+34     	; 0x1868 <__floatsisf+0x6a>
    1846:	77 23       	and	r23, r23
    1848:	21 f0       	breq	.+8      	; 0x1852 <__floatsisf+0x54>
    184a:	9e e8       	ldi	r25, 0x8E	; 142
    184c:	87 2f       	mov	r24, r23
    184e:	76 2f       	mov	r23, r22
    1850:	05 c0       	rjmp	.+10     	; 0x185c <__floatsisf+0x5e>
    1852:	66 23       	and	r22, r22
    1854:	71 f0       	breq	.+28     	; 0x1872 <__floatsisf+0x74>
    1856:	96 e8       	ldi	r25, 0x86	; 134
    1858:	86 2f       	mov	r24, r22
    185a:	70 e0       	ldi	r23, 0x00	; 0
    185c:	60 e0       	ldi	r22, 0x00	; 0
    185e:	2a f0       	brmi	.+10     	; 0x186a <__floatsisf+0x6c>
    1860:	9a 95       	dec	r25
    1862:	66 0f       	add	r22, r22
    1864:	77 1f       	adc	r23, r23
    1866:	88 1f       	adc	r24, r24
    1868:	da f7       	brpl	.-10     	; 0x1860 <__floatsisf+0x62>
    186a:	88 0f       	add	r24, r24
    186c:	96 95       	lsr	r25
    186e:	87 95       	ror	r24
    1870:	97 f9       	bld	r25, 7
    1872:	08 95       	ret

00001874 <__fp_cmp>:
    1874:	99 0f       	add	r25, r25
    1876:	00 08       	sbc	r0, r0
    1878:	55 0f       	add	r21, r21
    187a:	aa 0b       	sbc	r26, r26
    187c:	e0 e8       	ldi	r30, 0x80	; 128
    187e:	fe ef       	ldi	r31, 0xFE	; 254
    1880:	16 16       	cp	r1, r22
    1882:	17 06       	cpc	r1, r23
    1884:	e8 07       	cpc	r30, r24
    1886:	f9 07       	cpc	r31, r25
    1888:	c0 f0       	brcs	.+48     	; 0x18ba <__fp_cmp+0x46>
    188a:	12 16       	cp	r1, r18
    188c:	13 06       	cpc	r1, r19
    188e:	e4 07       	cpc	r30, r20
    1890:	f5 07       	cpc	r31, r21
    1892:	98 f0       	brcs	.+38     	; 0x18ba <__fp_cmp+0x46>
    1894:	62 1b       	sub	r22, r18
    1896:	73 0b       	sbc	r23, r19
    1898:	84 0b       	sbc	r24, r20
    189a:	95 0b       	sbc	r25, r21
    189c:	39 f4       	brne	.+14     	; 0x18ac <__fp_cmp+0x38>
    189e:	0a 26       	eor	r0, r26
    18a0:	61 f0       	breq	.+24     	; 0x18ba <__fp_cmp+0x46>
    18a2:	23 2b       	or	r18, r19
    18a4:	24 2b       	or	r18, r20
    18a6:	25 2b       	or	r18, r21
    18a8:	21 f4       	brne	.+8      	; 0x18b2 <__fp_cmp+0x3e>
    18aa:	08 95       	ret
    18ac:	0a 26       	eor	r0, r26
    18ae:	09 f4       	brne	.+2      	; 0x18b2 <__fp_cmp+0x3e>
    18b0:	a1 40       	sbci	r26, 0x01	; 1
    18b2:	a6 95       	lsr	r26
    18b4:	8f ef       	ldi	r24, 0xFF	; 255
    18b6:	81 1d       	adc	r24, r1
    18b8:	81 1d       	adc	r24, r1
    18ba:	08 95       	ret

000018bc <__fp_inf>:
    18bc:	97 f9       	bld	r25, 7
    18be:	9f 67       	ori	r25, 0x7F	; 127
    18c0:	80 e8       	ldi	r24, 0x80	; 128
    18c2:	70 e0       	ldi	r23, 0x00	; 0
    18c4:	60 e0       	ldi	r22, 0x00	; 0
    18c6:	08 95       	ret

000018c8 <__fp_nan>:
    18c8:	9f ef       	ldi	r25, 0xFF	; 255
    18ca:	80 ec       	ldi	r24, 0xC0	; 192
    18cc:	08 95       	ret

000018ce <__fp_pscA>:
    18ce:	00 24       	eor	r0, r0
    18d0:	0a 94       	dec	r0
    18d2:	16 16       	cp	r1, r22
    18d4:	17 06       	cpc	r1, r23
    18d6:	18 06       	cpc	r1, r24
    18d8:	09 06       	cpc	r0, r25
    18da:	08 95       	ret

000018dc <__fp_pscB>:
    18dc:	00 24       	eor	r0, r0
    18de:	0a 94       	dec	r0
    18e0:	12 16       	cp	r1, r18
    18e2:	13 06       	cpc	r1, r19
    18e4:	14 06       	cpc	r1, r20
    18e6:	05 06       	cpc	r0, r21
    18e8:	08 95       	ret

000018ea <__fp_round>:
    18ea:	09 2e       	mov	r0, r25
    18ec:	03 94       	inc	r0
    18ee:	00 0c       	add	r0, r0
    18f0:	11 f4       	brne	.+4      	; 0x18f6 <__fp_round+0xc>
    18f2:	88 23       	and	r24, r24
    18f4:	52 f0       	brmi	.+20     	; 0x190a <__fp_round+0x20>
    18f6:	bb 0f       	add	r27, r27
    18f8:	40 f4       	brcc	.+16     	; 0x190a <__fp_round+0x20>
    18fa:	bf 2b       	or	r27, r31
    18fc:	11 f4       	brne	.+4      	; 0x1902 <__fp_round+0x18>
    18fe:	60 ff       	sbrs	r22, 0
    1900:	04 c0       	rjmp	.+8      	; 0x190a <__fp_round+0x20>
    1902:	6f 5f       	subi	r22, 0xFF	; 255
    1904:	7f 4f       	sbci	r23, 0xFF	; 255
    1906:	8f 4f       	sbci	r24, 0xFF	; 255
    1908:	9f 4f       	sbci	r25, 0xFF	; 255
    190a:	08 95       	ret

0000190c <__fp_split3>:
    190c:	57 fd       	sbrc	r21, 7
    190e:	90 58       	subi	r25, 0x80	; 128
    1910:	44 0f       	add	r20, r20
    1912:	55 1f       	adc	r21, r21
    1914:	59 f0       	breq	.+22     	; 0x192c <__fp_splitA+0x10>
    1916:	5f 3f       	cpi	r21, 0xFF	; 255
    1918:	71 f0       	breq	.+28     	; 0x1936 <__fp_splitA+0x1a>
    191a:	47 95       	ror	r20

0000191c <__fp_splitA>:
    191c:	88 0f       	add	r24, r24
    191e:	97 fb       	bst	r25, 7
    1920:	99 1f       	adc	r25, r25
    1922:	61 f0       	breq	.+24     	; 0x193c <__fp_splitA+0x20>
    1924:	9f 3f       	cpi	r25, 0xFF	; 255
    1926:	79 f0       	breq	.+30     	; 0x1946 <__fp_splitA+0x2a>
    1928:	87 95       	ror	r24
    192a:	08 95       	ret
    192c:	12 16       	cp	r1, r18
    192e:	13 06       	cpc	r1, r19
    1930:	14 06       	cpc	r1, r20
    1932:	55 1f       	adc	r21, r21
    1934:	f2 cf       	rjmp	.-28     	; 0x191a <__fp_split3+0xe>
    1936:	46 95       	lsr	r20
    1938:	f1 df       	rcall	.-30     	; 0x191c <__fp_splitA>
    193a:	08 c0       	rjmp	.+16     	; 0x194c <__fp_splitA+0x30>
    193c:	16 16       	cp	r1, r22
    193e:	17 06       	cpc	r1, r23
    1940:	18 06       	cpc	r1, r24
    1942:	99 1f       	adc	r25, r25
    1944:	f1 cf       	rjmp	.-30     	; 0x1928 <__fp_splitA+0xc>
    1946:	86 95       	lsr	r24
    1948:	71 05       	cpc	r23, r1
    194a:	61 05       	cpc	r22, r1
    194c:	08 94       	sec
    194e:	08 95       	ret

00001950 <__fp_zero>:
    1950:	e8 94       	clt

00001952 <__fp_szero>:
    1952:	bb 27       	eor	r27, r27
    1954:	66 27       	eor	r22, r22
    1956:	77 27       	eor	r23, r23
    1958:	cb 01       	movw	r24, r22
    195a:	97 f9       	bld	r25, 7
    195c:	08 95       	ret

0000195e <__gesf2>:
    195e:	8a df       	rcall	.-236    	; 0x1874 <__fp_cmp>
    1960:	08 f4       	brcc	.+2      	; 0x1964 <__gesf2+0x6>
    1962:	8f ef       	ldi	r24, 0xFF	; 255
    1964:	08 95       	ret

00001966 <__mulsf3>:
    1966:	0b d0       	rcall	.+22     	; 0x197e <__mulsf3x>
    1968:	c0 cf       	rjmp	.-128    	; 0x18ea <__fp_round>
    196a:	b1 df       	rcall	.-158    	; 0x18ce <__fp_pscA>
    196c:	28 f0       	brcs	.+10     	; 0x1978 <__mulsf3+0x12>
    196e:	b6 df       	rcall	.-148    	; 0x18dc <__fp_pscB>
    1970:	18 f0       	brcs	.+6      	; 0x1978 <__mulsf3+0x12>
    1972:	95 23       	and	r25, r21
    1974:	09 f0       	breq	.+2      	; 0x1978 <__mulsf3+0x12>
    1976:	a2 cf       	rjmp	.-188    	; 0x18bc <__fp_inf>
    1978:	a7 cf       	rjmp	.-178    	; 0x18c8 <__fp_nan>
    197a:	11 24       	eor	r1, r1
    197c:	ea cf       	rjmp	.-44     	; 0x1952 <__fp_szero>

0000197e <__mulsf3x>:
    197e:	c6 df       	rcall	.-116    	; 0x190c <__fp_split3>
    1980:	a0 f3       	brcs	.-24     	; 0x196a <__mulsf3+0x4>

00001982 <__mulsf3_pse>:
    1982:	95 9f       	mul	r25, r21
    1984:	d1 f3       	breq	.-12     	; 0x197a <__mulsf3+0x14>
    1986:	95 0f       	add	r25, r21
    1988:	50 e0       	ldi	r21, 0x00	; 0
    198a:	55 1f       	adc	r21, r21
    198c:	62 9f       	mul	r22, r18
    198e:	f0 01       	movw	r30, r0
    1990:	72 9f       	mul	r23, r18
    1992:	bb 27       	eor	r27, r27
    1994:	f0 0d       	add	r31, r0
    1996:	b1 1d       	adc	r27, r1
    1998:	63 9f       	mul	r22, r19
    199a:	aa 27       	eor	r26, r26
    199c:	f0 0d       	add	r31, r0
    199e:	b1 1d       	adc	r27, r1
    19a0:	aa 1f       	adc	r26, r26
    19a2:	64 9f       	mul	r22, r20
    19a4:	66 27       	eor	r22, r22
    19a6:	b0 0d       	add	r27, r0
    19a8:	a1 1d       	adc	r26, r1
    19aa:	66 1f       	adc	r22, r22
    19ac:	82 9f       	mul	r24, r18
    19ae:	22 27       	eor	r18, r18
    19b0:	b0 0d       	add	r27, r0
    19b2:	a1 1d       	adc	r26, r1
    19b4:	62 1f       	adc	r22, r18
    19b6:	73 9f       	mul	r23, r19
    19b8:	b0 0d       	add	r27, r0
    19ba:	a1 1d       	adc	r26, r1
    19bc:	62 1f       	adc	r22, r18
    19be:	83 9f       	mul	r24, r19
    19c0:	a0 0d       	add	r26, r0
    19c2:	61 1d       	adc	r22, r1
    19c4:	22 1f       	adc	r18, r18
    19c6:	74 9f       	mul	r23, r20
    19c8:	33 27       	eor	r19, r19
    19ca:	a0 0d       	add	r26, r0
    19cc:	61 1d       	adc	r22, r1
    19ce:	23 1f       	adc	r18, r19
    19d0:	84 9f       	mul	r24, r20
    19d2:	60 0d       	add	r22, r0
    19d4:	21 1d       	adc	r18, r1
    19d6:	82 2f       	mov	r24, r18
    19d8:	76 2f       	mov	r23, r22
    19da:	6a 2f       	mov	r22, r26
    19dc:	11 24       	eor	r1, r1
    19de:	9f 57       	subi	r25, 0x7F	; 127
    19e0:	50 40       	sbci	r21, 0x00	; 0
    19e2:	8a f0       	brmi	.+34     	; 0x1a06 <__mulsf3_pse+0x84>
    19e4:	e1 f0       	breq	.+56     	; 0x1a1e <__mulsf3_pse+0x9c>
    19e6:	88 23       	and	r24, r24
    19e8:	4a f0       	brmi	.+18     	; 0x19fc <__mulsf3_pse+0x7a>
    19ea:	ee 0f       	add	r30, r30
    19ec:	ff 1f       	adc	r31, r31
    19ee:	bb 1f       	adc	r27, r27
    19f0:	66 1f       	adc	r22, r22
    19f2:	77 1f       	adc	r23, r23
    19f4:	88 1f       	adc	r24, r24
    19f6:	91 50       	subi	r25, 0x01	; 1
    19f8:	50 40       	sbci	r21, 0x00	; 0
    19fa:	a9 f7       	brne	.-22     	; 0x19e6 <__mulsf3_pse+0x64>
    19fc:	9e 3f       	cpi	r25, 0xFE	; 254
    19fe:	51 05       	cpc	r21, r1
    1a00:	70 f0       	brcs	.+28     	; 0x1a1e <__mulsf3_pse+0x9c>
    1a02:	5c cf       	rjmp	.-328    	; 0x18bc <__fp_inf>
    1a04:	a6 cf       	rjmp	.-180    	; 0x1952 <__fp_szero>
    1a06:	5f 3f       	cpi	r21, 0xFF	; 255
    1a08:	ec f3       	brlt	.-6      	; 0x1a04 <__mulsf3_pse+0x82>
    1a0a:	98 3e       	cpi	r25, 0xE8	; 232
    1a0c:	dc f3       	brlt	.-10     	; 0x1a04 <__mulsf3_pse+0x82>
    1a0e:	86 95       	lsr	r24
    1a10:	77 95       	ror	r23
    1a12:	67 95       	ror	r22
    1a14:	b7 95       	ror	r27
    1a16:	f7 95       	ror	r31
    1a18:	e7 95       	ror	r30
    1a1a:	9f 5f       	subi	r25, 0xFF	; 255
    1a1c:	c1 f7       	brne	.-16     	; 0x1a0e <__mulsf3_pse+0x8c>
    1a1e:	fe 2b       	or	r31, r30
    1a20:	88 0f       	add	r24, r24
    1a22:	91 1d       	adc	r25, r1
    1a24:	96 95       	lsr	r25
    1a26:	87 95       	ror	r24
    1a28:	97 f9       	bld	r25, 7
    1a2a:	08 95       	ret

00001a2c <pow>:
    1a2c:	fa 01       	movw	r30, r20
    1a2e:	ee 0f       	add	r30, r30
    1a30:	ff 1f       	adc	r31, r31
    1a32:	30 96       	adiw	r30, 0x00	; 0
    1a34:	21 05       	cpc	r18, r1
    1a36:	31 05       	cpc	r19, r1
    1a38:	99 f1       	breq	.+102    	; 0x1aa0 <pow+0x74>
    1a3a:	61 15       	cp	r22, r1
    1a3c:	71 05       	cpc	r23, r1
    1a3e:	61 f4       	brne	.+24     	; 0x1a58 <pow+0x2c>
    1a40:	80 38       	cpi	r24, 0x80	; 128
    1a42:	bf e3       	ldi	r27, 0x3F	; 63
    1a44:	9b 07       	cpc	r25, r27
    1a46:	49 f1       	breq	.+82     	; 0x1a9a <pow+0x6e>
    1a48:	68 94       	set
    1a4a:	90 38       	cpi	r25, 0x80	; 128
    1a4c:	81 05       	cpc	r24, r1
    1a4e:	61 f0       	breq	.+24     	; 0x1a68 <pow+0x3c>
    1a50:	80 38       	cpi	r24, 0x80	; 128
    1a52:	bf ef       	ldi	r27, 0xFF	; 255
    1a54:	9b 07       	cpc	r25, r27
    1a56:	41 f0       	breq	.+16     	; 0x1a68 <pow+0x3c>
    1a58:	99 23       	and	r25, r25
    1a5a:	42 f5       	brpl	.+80     	; 0x1aac <pow+0x80>
    1a5c:	ff 3f       	cpi	r31, 0xFF	; 255
    1a5e:	e1 05       	cpc	r30, r1
    1a60:	31 05       	cpc	r19, r1
    1a62:	21 05       	cpc	r18, r1
    1a64:	11 f1       	breq	.+68     	; 0x1aaa <pow+0x7e>
    1a66:	e8 94       	clt
    1a68:	08 94       	sec
    1a6a:	e7 95       	ror	r30
    1a6c:	d9 01       	movw	r26, r18
    1a6e:	aa 23       	and	r26, r26
    1a70:	29 f4       	brne	.+10     	; 0x1a7c <pow+0x50>
    1a72:	ab 2f       	mov	r26, r27
    1a74:	be 2f       	mov	r27, r30
    1a76:	f8 5f       	subi	r31, 0xF8	; 248
    1a78:	d0 f3       	brcs	.-12     	; 0x1a6e <pow+0x42>
    1a7a:	10 c0       	rjmp	.+32     	; 0x1a9c <pow+0x70>
    1a7c:	ff 5f       	subi	r31, 0xFF	; 255
    1a7e:	70 f4       	brcc	.+28     	; 0x1a9c <pow+0x70>
    1a80:	a6 95       	lsr	r26
    1a82:	e0 f7       	brcc	.-8      	; 0x1a7c <pow+0x50>
    1a84:	f7 39       	cpi	r31, 0x97	; 151
    1a86:	50 f0       	brcs	.+20     	; 0x1a9c <pow+0x70>
    1a88:	19 f0       	breq	.+6      	; 0x1a90 <pow+0x64>
    1a8a:	ff 3a       	cpi	r31, 0xAF	; 175
    1a8c:	38 f4       	brcc	.+14     	; 0x1a9c <pow+0x70>
    1a8e:	9f 77       	andi	r25, 0x7F	; 127
    1a90:	9f 93       	push	r25
    1a92:	0c d0       	rcall	.+24     	; 0x1aac <pow+0x80>
    1a94:	0f 90       	pop	r0
    1a96:	07 fc       	sbrc	r0, 7
    1a98:	90 58       	subi	r25, 0x80	; 128
    1a9a:	08 95       	ret
    1a9c:	3e f0       	brts	.+14     	; 0x1aac <pow+0x80>
    1a9e:	14 cf       	rjmp	.-472    	; 0x18c8 <__fp_nan>
    1aa0:	60 e0       	ldi	r22, 0x00	; 0
    1aa2:	70 e0       	ldi	r23, 0x00	; 0
    1aa4:	80 e8       	ldi	r24, 0x80	; 128
    1aa6:	9f e3       	ldi	r25, 0x3F	; 63
    1aa8:	08 95       	ret
    1aaa:	4f e7       	ldi	r20, 0x7F	; 127
    1aac:	9f 77       	andi	r25, 0x7F	; 127
    1aae:	5f 93       	push	r21
    1ab0:	4f 93       	push	r20
    1ab2:	3f 93       	push	r19
    1ab4:	2f 93       	push	r18
    1ab6:	9e d0       	rcall	.+316    	; 0x1bf4 <log>
    1ab8:	2f 91       	pop	r18
    1aba:	3f 91       	pop	r19
    1abc:	4f 91       	pop	r20
    1abe:	5f 91       	pop	r21
    1ac0:	52 df       	rcall	.-348    	; 0x1966 <__mulsf3>
    1ac2:	05 c0       	rjmp	.+10     	; 0x1ace <exp>
    1ac4:	19 f4       	brne	.+6      	; 0x1acc <pow+0xa0>
    1ac6:	0e f0       	brts	.+2      	; 0x1aca <pow+0x9e>
    1ac8:	f9 ce       	rjmp	.-526    	; 0x18bc <__fp_inf>
    1aca:	42 cf       	rjmp	.-380    	; 0x1950 <__fp_zero>
    1acc:	fd ce       	rjmp	.-518    	; 0x18c8 <__fp_nan>

00001ace <exp>:
    1ace:	26 df       	rcall	.-436    	; 0x191c <__fp_splitA>
    1ad0:	c8 f3       	brcs	.-14     	; 0x1ac4 <pow+0x98>
    1ad2:	96 38       	cpi	r25, 0x86	; 134
    1ad4:	c0 f7       	brcc	.-16     	; 0x1ac6 <pow+0x9a>
    1ad6:	07 f8       	bld	r0, 7
    1ad8:	0f 92       	push	r0
    1ada:	e8 94       	clt
    1adc:	2b e3       	ldi	r18, 0x3B	; 59
    1ade:	3a ea       	ldi	r19, 0xAA	; 170
    1ae0:	48 eb       	ldi	r20, 0xB8	; 184
    1ae2:	5f e7       	ldi	r21, 0x7F	; 127
    1ae4:	4e df       	rcall	.-356    	; 0x1982 <__mulsf3_pse>
    1ae6:	0f 92       	push	r0
    1ae8:	0f 92       	push	r0
    1aea:	0f 92       	push	r0
    1aec:	4d b7       	in	r20, 0x3d	; 61
    1aee:	5e b7       	in	r21, 0x3e	; 62
    1af0:	0f 92       	push	r0
    1af2:	c0 d0       	rcall	.+384    	; 0x1c74 <modf>
    1af4:	e4 e3       	ldi	r30, 0x34	; 52
    1af6:	f0 e0       	ldi	r31, 0x00	; 0
    1af8:	16 d0       	rcall	.+44     	; 0x1b26 <__fp_powser>
    1afa:	4f 91       	pop	r20
    1afc:	5f 91       	pop	r21
    1afe:	ef 91       	pop	r30
    1b00:	ff 91       	pop	r31
    1b02:	e5 95       	asr	r30
    1b04:	ee 1f       	adc	r30, r30
    1b06:	ff 1f       	adc	r31, r31
    1b08:	49 f0       	breq	.+18     	; 0x1b1c <exp+0x4e>
    1b0a:	fe 57       	subi	r31, 0x7E	; 126
    1b0c:	e0 68       	ori	r30, 0x80	; 128
    1b0e:	44 27       	eor	r20, r20
    1b10:	ee 0f       	add	r30, r30
    1b12:	44 1f       	adc	r20, r20
    1b14:	fa 95       	dec	r31
    1b16:	e1 f7       	brne	.-8      	; 0x1b10 <exp+0x42>
    1b18:	41 95       	neg	r20
    1b1a:	55 0b       	sbc	r21, r21
    1b1c:	32 d0       	rcall	.+100    	; 0x1b82 <ldexp>
    1b1e:	0f 90       	pop	r0
    1b20:	07 fe       	sbrs	r0, 7
    1b22:	26 c0       	rjmp	.+76     	; 0x1b70 <inverse>
    1b24:	08 95       	ret

00001b26 <__fp_powser>:
    1b26:	df 93       	push	r29
    1b28:	cf 93       	push	r28
    1b2a:	1f 93       	push	r17
    1b2c:	0f 93       	push	r16
    1b2e:	ff 92       	push	r15
    1b30:	ef 92       	push	r14
    1b32:	df 92       	push	r13
    1b34:	7b 01       	movw	r14, r22
    1b36:	8c 01       	movw	r16, r24
    1b38:	68 94       	set
    1b3a:	05 c0       	rjmp	.+10     	; 0x1b46 <__fp_powser+0x20>
    1b3c:	da 2e       	mov	r13, r26
    1b3e:	ef 01       	movw	r28, r30
    1b40:	1e df       	rcall	.-452    	; 0x197e <__mulsf3x>
    1b42:	fe 01       	movw	r30, r28
    1b44:	e8 94       	clt
    1b46:	a5 91       	lpm	r26, Z+
    1b48:	25 91       	lpm	r18, Z+
    1b4a:	35 91       	lpm	r19, Z+
    1b4c:	45 91       	lpm	r20, Z+
    1b4e:	55 91       	lpm	r21, Z+
    1b50:	ae f3       	brts	.-22     	; 0x1b3c <__fp_powser+0x16>
    1b52:	ef 01       	movw	r28, r30
    1b54:	62 dd       	rcall	.-1340   	; 0x161a <__addsf3x>
    1b56:	fe 01       	movw	r30, r28
    1b58:	97 01       	movw	r18, r14
    1b5a:	a8 01       	movw	r20, r16
    1b5c:	da 94       	dec	r13
    1b5e:	79 f7       	brne	.-34     	; 0x1b3e <__fp_powser+0x18>
    1b60:	df 90       	pop	r13
    1b62:	ef 90       	pop	r14
    1b64:	ff 90       	pop	r15
    1b66:	0f 91       	pop	r16
    1b68:	1f 91       	pop	r17
    1b6a:	cf 91       	pop	r28
    1b6c:	df 91       	pop	r29
    1b6e:	08 95       	ret

00001b70 <inverse>:
    1b70:	9b 01       	movw	r18, r22
    1b72:	ac 01       	movw	r20, r24
    1b74:	60 e0       	ldi	r22, 0x00	; 0
    1b76:	70 e0       	ldi	r23, 0x00	; 0
    1b78:	80 e8       	ldi	r24, 0x80	; 128
    1b7a:	9f e3       	ldi	r25, 0x3F	; 63
    1b7c:	a5 cd       	rjmp	.-1206   	; 0x16c8 <__divsf3>
    1b7e:	9e ce       	rjmp	.-708    	; 0x18bc <__fp_inf>
    1b80:	ac c0       	rjmp	.+344    	; 0x1cda <__fp_mpack>

00001b82 <ldexp>:
    1b82:	cc de       	rcall	.-616    	; 0x191c <__fp_splitA>
    1b84:	e8 f3       	brcs	.-6      	; 0x1b80 <inverse+0x10>
    1b86:	99 23       	and	r25, r25
    1b88:	d9 f3       	breq	.-10     	; 0x1b80 <inverse+0x10>
    1b8a:	94 0f       	add	r25, r20
    1b8c:	51 1d       	adc	r21, r1
    1b8e:	bb f3       	brvs	.-18     	; 0x1b7e <inverse+0xe>
    1b90:	91 50       	subi	r25, 0x01	; 1
    1b92:	50 40       	sbci	r21, 0x00	; 0
    1b94:	94 f0       	brlt	.+36     	; 0x1bba <ldexp+0x38>
    1b96:	59 f0       	breq	.+22     	; 0x1bae <ldexp+0x2c>
    1b98:	88 23       	and	r24, r24
    1b9a:	32 f0       	brmi	.+12     	; 0x1ba8 <ldexp+0x26>
    1b9c:	66 0f       	add	r22, r22
    1b9e:	77 1f       	adc	r23, r23
    1ba0:	88 1f       	adc	r24, r24
    1ba2:	91 50       	subi	r25, 0x01	; 1
    1ba4:	50 40       	sbci	r21, 0x00	; 0
    1ba6:	c1 f7       	brne	.-16     	; 0x1b98 <ldexp+0x16>
    1ba8:	9e 3f       	cpi	r25, 0xFE	; 254
    1baa:	51 05       	cpc	r21, r1
    1bac:	44 f7       	brge	.-48     	; 0x1b7e <inverse+0xe>
    1bae:	88 0f       	add	r24, r24
    1bb0:	91 1d       	adc	r25, r1
    1bb2:	96 95       	lsr	r25
    1bb4:	87 95       	ror	r24
    1bb6:	97 f9       	bld	r25, 7
    1bb8:	08 95       	ret
    1bba:	5f 3f       	cpi	r21, 0xFF	; 255
    1bbc:	ac f0       	brlt	.+42     	; 0x1be8 <ldexp+0x66>
    1bbe:	98 3e       	cpi	r25, 0xE8	; 232
    1bc0:	9c f0       	brlt	.+38     	; 0x1be8 <ldexp+0x66>
    1bc2:	bb 27       	eor	r27, r27
    1bc4:	86 95       	lsr	r24
    1bc6:	77 95       	ror	r23
    1bc8:	67 95       	ror	r22
    1bca:	b7 95       	ror	r27
    1bcc:	08 f4       	brcc	.+2      	; 0x1bd0 <ldexp+0x4e>
    1bce:	b1 60       	ori	r27, 0x01	; 1
    1bd0:	93 95       	inc	r25
    1bd2:	c1 f7       	brne	.-16     	; 0x1bc4 <ldexp+0x42>
    1bd4:	bb 0f       	add	r27, r27
    1bd6:	58 f7       	brcc	.-42     	; 0x1bae <ldexp+0x2c>
    1bd8:	11 f4       	brne	.+4      	; 0x1bde <ldexp+0x5c>
    1bda:	60 ff       	sbrs	r22, 0
    1bdc:	e8 cf       	rjmp	.-48     	; 0x1bae <ldexp+0x2c>
    1bde:	6f 5f       	subi	r22, 0xFF	; 255
    1be0:	7f 4f       	sbci	r23, 0xFF	; 255
    1be2:	8f 4f       	sbci	r24, 0xFF	; 255
    1be4:	9f 4f       	sbci	r25, 0xFF	; 255
    1be6:	e3 cf       	rjmp	.-58     	; 0x1bae <ldexp+0x2c>
    1be8:	b4 ce       	rjmp	.-664    	; 0x1952 <__fp_szero>
    1bea:	0e f0       	brts	.+2      	; 0x1bee <ldexp+0x6c>
    1bec:	76 c0       	rjmp	.+236    	; 0x1cda <__fp_mpack>
    1bee:	6c ce       	rjmp	.-808    	; 0x18c8 <__fp_nan>
    1bf0:	68 94       	set
    1bf2:	64 ce       	rjmp	.-824    	; 0x18bc <__fp_inf>

00001bf4 <log>:
    1bf4:	93 de       	rcall	.-730    	; 0x191c <__fp_splitA>
    1bf6:	c8 f3       	brcs	.-14     	; 0x1bea <ldexp+0x68>
    1bf8:	99 23       	and	r25, r25
    1bfa:	d1 f3       	breq	.-12     	; 0x1bf0 <ldexp+0x6e>
    1bfc:	c6 f3       	brts	.-16     	; 0x1bee <ldexp+0x6c>
    1bfe:	df 93       	push	r29
    1c00:	cf 93       	push	r28
    1c02:	1f 93       	push	r17
    1c04:	0f 93       	push	r16
    1c06:	ff 92       	push	r15
    1c08:	c9 2f       	mov	r28, r25
    1c0a:	dd 27       	eor	r29, r29
    1c0c:	88 23       	and	r24, r24
    1c0e:	2a f0       	brmi	.+10     	; 0x1c1a <log+0x26>
    1c10:	21 97       	sbiw	r28, 0x01	; 1
    1c12:	66 0f       	add	r22, r22
    1c14:	77 1f       	adc	r23, r23
    1c16:	88 1f       	adc	r24, r24
    1c18:	da f7       	brpl	.-10     	; 0x1c10 <log+0x1c>
    1c1a:	20 e0       	ldi	r18, 0x00	; 0
    1c1c:	30 e0       	ldi	r19, 0x00	; 0
    1c1e:	40 e8       	ldi	r20, 0x80	; 128
    1c20:	5f eb       	ldi	r21, 0xBF	; 191
    1c22:	9f e3       	ldi	r25, 0x3F	; 63
    1c24:	88 39       	cpi	r24, 0x98	; 152
    1c26:	20 f0       	brcs	.+8      	; 0x1c30 <log+0x3c>
    1c28:	80 3e       	cpi	r24, 0xE0	; 224
    1c2a:	30 f0       	brcs	.+12     	; 0x1c38 <log+0x44>
    1c2c:	21 96       	adiw	r28, 0x01	; 1
    1c2e:	8f 77       	andi	r24, 0x7F	; 127
    1c30:	e3 dc       	rcall	.-1594   	; 0x15f8 <__addsf3>
    1c32:	ec e5       	ldi	r30, 0x5C	; 92
    1c34:	f0 e0       	ldi	r31, 0x00	; 0
    1c36:	03 c0       	rjmp	.+6      	; 0x1c3e <log+0x4a>
    1c38:	df dc       	rcall	.-1602   	; 0x15f8 <__addsf3>
    1c3a:	e9 e8       	ldi	r30, 0x89	; 137
    1c3c:	f0 e0       	ldi	r31, 0x00	; 0
    1c3e:	73 df       	rcall	.-282    	; 0x1b26 <__fp_powser>
    1c40:	8b 01       	movw	r16, r22
    1c42:	be 01       	movw	r22, r28
    1c44:	ec 01       	movw	r28, r24
    1c46:	fb 2e       	mov	r15, r27
    1c48:	6f 57       	subi	r22, 0x7F	; 127
    1c4a:	71 09       	sbc	r23, r1
    1c4c:	75 95       	asr	r23
    1c4e:	77 1f       	adc	r23, r23
    1c50:	88 0b       	sbc	r24, r24
    1c52:	99 0b       	sbc	r25, r25
    1c54:	d4 dd       	rcall	.-1112   	; 0x17fe <__floatsisf>
    1c56:	28 e1       	ldi	r18, 0x18	; 24
    1c58:	32 e7       	ldi	r19, 0x72	; 114
    1c5a:	41 e3       	ldi	r20, 0x31	; 49
    1c5c:	5f e3       	ldi	r21, 0x3F	; 63
    1c5e:	8f de       	rcall	.-738    	; 0x197e <__mulsf3x>
    1c60:	af 2d       	mov	r26, r15
    1c62:	98 01       	movw	r18, r16
    1c64:	ae 01       	movw	r20, r28
    1c66:	ff 90       	pop	r15
    1c68:	0f 91       	pop	r16
    1c6a:	1f 91       	pop	r17
    1c6c:	cf 91       	pop	r28
    1c6e:	df 91       	pop	r29
    1c70:	d4 dc       	rcall	.-1624   	; 0x161a <__addsf3x>
    1c72:	3b ce       	rjmp	.-906    	; 0x18ea <__fp_round>

00001c74 <modf>:
    1c74:	fa 01       	movw	r30, r20
    1c76:	dc 01       	movw	r26, r24
    1c78:	aa 0f       	add	r26, r26
    1c7a:	bb 1f       	adc	r27, r27
    1c7c:	9b 01       	movw	r18, r22
    1c7e:	ac 01       	movw	r20, r24
    1c80:	bf 57       	subi	r27, 0x7F	; 127
    1c82:	28 f4       	brcc	.+10     	; 0x1c8e <modf+0x1a>
    1c84:	22 27       	eor	r18, r18
    1c86:	33 27       	eor	r19, r19
    1c88:	44 27       	eor	r20, r20
    1c8a:	50 78       	andi	r21, 0x80	; 128
    1c8c:	1f c0       	rjmp	.+62     	; 0x1ccc <modf+0x58>
    1c8e:	b7 51       	subi	r27, 0x17	; 23
    1c90:	88 f4       	brcc	.+34     	; 0x1cb4 <modf+0x40>
    1c92:	ab 2f       	mov	r26, r27
    1c94:	00 24       	eor	r0, r0
    1c96:	46 95       	lsr	r20
    1c98:	37 95       	ror	r19
    1c9a:	27 95       	ror	r18
    1c9c:	01 1c       	adc	r0, r1
    1c9e:	a3 95       	inc	r26
    1ca0:	d2 f3       	brmi	.-12     	; 0x1c96 <modf+0x22>
    1ca2:	00 20       	and	r0, r0
    1ca4:	69 f0       	breq	.+26     	; 0x1cc0 <modf+0x4c>
    1ca6:	22 0f       	add	r18, r18
    1ca8:	33 1f       	adc	r19, r19
    1caa:	44 1f       	adc	r20, r20
    1cac:	b3 95       	inc	r27
    1cae:	da f3       	brmi	.-10     	; 0x1ca6 <modf+0x32>
    1cb0:	0d d0       	rcall	.+26     	; 0x1ccc <modf+0x58>
    1cb2:	a1 cc       	rjmp	.-1726   	; 0x15f6 <__subsf3>
    1cb4:	61 30       	cpi	r22, 0x01	; 1
    1cb6:	71 05       	cpc	r23, r1
    1cb8:	a0 e8       	ldi	r26, 0x80	; 128
    1cba:	8a 07       	cpc	r24, r26
    1cbc:	b9 46       	sbci	r27, 0x69	; 105
    1cbe:	30 f4       	brcc	.+12     	; 0x1ccc <modf+0x58>
    1cc0:	9b 01       	movw	r18, r22
    1cc2:	ac 01       	movw	r20, r24
    1cc4:	66 27       	eor	r22, r22
    1cc6:	77 27       	eor	r23, r23
    1cc8:	88 27       	eor	r24, r24
    1cca:	90 78       	andi	r25, 0x80	; 128
    1ccc:	30 96       	adiw	r30, 0x00	; 0
    1cce:	21 f0       	breq	.+8      	; 0x1cd8 <modf+0x64>
    1cd0:	20 83       	st	Z, r18
    1cd2:	31 83       	std	Z+1, r19	; 0x01
    1cd4:	42 83       	std	Z+2, r20	; 0x02
    1cd6:	53 83       	std	Z+3, r21	; 0x03
    1cd8:	08 95       	ret

00001cda <__fp_mpack>:
    1cda:	9f 3f       	cpi	r25, 0xFF	; 255
    1cdc:	31 f0       	breq	.+12     	; 0x1cea <__fp_mpack_finite+0xc>

00001cde <__fp_mpack_finite>:
    1cde:	91 50       	subi	r25, 0x01	; 1
    1ce0:	20 f4       	brcc	.+8      	; 0x1cea <__fp_mpack_finite+0xc>
    1ce2:	87 95       	ror	r24
    1ce4:	77 95       	ror	r23
    1ce6:	67 95       	ror	r22
    1ce8:	b7 95       	ror	r27
    1cea:	88 0f       	add	r24, r24
    1cec:	91 1d       	adc	r25, r1
    1cee:	96 95       	lsr	r25
    1cf0:	87 95       	ror	r24
    1cf2:	97 f9       	bld	r25, 7
    1cf4:	08 95       	ret

00001cf6 <__divmodhi4>:
    1cf6:	97 fb       	bst	r25, 7
    1cf8:	07 2e       	mov	r0, r23
    1cfa:	16 f4       	brtc	.+4      	; 0x1d00 <__divmodhi4+0xa>
    1cfc:	00 94       	com	r0
    1cfe:	06 d0       	rcall	.+12     	; 0x1d0c <__divmodhi4_neg1>
    1d00:	77 fd       	sbrc	r23, 7
    1d02:	08 d0       	rcall	.+16     	; 0x1d14 <__divmodhi4_neg2>
    1d04:	27 d0       	rcall	.+78     	; 0x1d54 <__udivmodhi4>
    1d06:	07 fc       	sbrc	r0, 7
    1d08:	05 d0       	rcall	.+10     	; 0x1d14 <__divmodhi4_neg2>
    1d0a:	3e f4       	brtc	.+14     	; 0x1d1a <__divmodhi4_exit>

00001d0c <__divmodhi4_neg1>:
    1d0c:	90 95       	com	r25
    1d0e:	81 95       	neg	r24
    1d10:	9f 4f       	sbci	r25, 0xFF	; 255
    1d12:	08 95       	ret

00001d14 <__divmodhi4_neg2>:
    1d14:	70 95       	com	r23
    1d16:	61 95       	neg	r22
    1d18:	7f 4f       	sbci	r23, 0xFF	; 255

00001d1a <__divmodhi4_exit>:
    1d1a:	08 95       	ret

00001d1c <__divmodsi4>:
    1d1c:	05 2e       	mov	r0, r21
    1d1e:	97 fb       	bst	r25, 7
    1d20:	16 f4       	brtc	.+4      	; 0x1d26 <__divmodsi4+0xa>
    1d22:	00 94       	com	r0
    1d24:	0f d0       	rcall	.+30     	; 0x1d44 <__negsi2>
    1d26:	57 fd       	sbrc	r21, 7
    1d28:	05 d0       	rcall	.+10     	; 0x1d34 <__divmodsi4_neg2>
    1d2a:	28 d0       	rcall	.+80     	; 0x1d7c <__udivmodsi4>
    1d2c:	07 fc       	sbrc	r0, 7
    1d2e:	02 d0       	rcall	.+4      	; 0x1d34 <__divmodsi4_neg2>
    1d30:	46 f4       	brtc	.+16     	; 0x1d42 <__divmodsi4_exit>
    1d32:	08 c0       	rjmp	.+16     	; 0x1d44 <__negsi2>

00001d34 <__divmodsi4_neg2>:
    1d34:	50 95       	com	r21
    1d36:	40 95       	com	r20
    1d38:	30 95       	com	r19
    1d3a:	21 95       	neg	r18
    1d3c:	3f 4f       	sbci	r19, 0xFF	; 255
    1d3e:	4f 4f       	sbci	r20, 0xFF	; 255
    1d40:	5f 4f       	sbci	r21, 0xFF	; 255

00001d42 <__divmodsi4_exit>:
    1d42:	08 95       	ret

00001d44 <__negsi2>:
    1d44:	90 95       	com	r25
    1d46:	80 95       	com	r24
    1d48:	70 95       	com	r23
    1d4a:	61 95       	neg	r22
    1d4c:	7f 4f       	sbci	r23, 0xFF	; 255
    1d4e:	8f 4f       	sbci	r24, 0xFF	; 255
    1d50:	9f 4f       	sbci	r25, 0xFF	; 255
    1d52:	08 95       	ret

00001d54 <__udivmodhi4>:
    1d54:	aa 1b       	sub	r26, r26
    1d56:	bb 1b       	sub	r27, r27
    1d58:	51 e1       	ldi	r21, 0x11	; 17
    1d5a:	07 c0       	rjmp	.+14     	; 0x1d6a <__udivmodhi4_ep>

00001d5c <__udivmodhi4_loop>:
    1d5c:	aa 1f       	adc	r26, r26
    1d5e:	bb 1f       	adc	r27, r27
    1d60:	a6 17       	cp	r26, r22
    1d62:	b7 07       	cpc	r27, r23
    1d64:	10 f0       	brcs	.+4      	; 0x1d6a <__udivmodhi4_ep>
    1d66:	a6 1b       	sub	r26, r22
    1d68:	b7 0b       	sbc	r27, r23

00001d6a <__udivmodhi4_ep>:
    1d6a:	88 1f       	adc	r24, r24
    1d6c:	99 1f       	adc	r25, r25
    1d6e:	5a 95       	dec	r21
    1d70:	a9 f7       	brne	.-22     	; 0x1d5c <__udivmodhi4_loop>
    1d72:	80 95       	com	r24
    1d74:	90 95       	com	r25
    1d76:	bc 01       	movw	r22, r24
    1d78:	cd 01       	movw	r24, r26
    1d7a:	08 95       	ret

00001d7c <__udivmodsi4>:
    1d7c:	a1 e2       	ldi	r26, 0x21	; 33
    1d7e:	1a 2e       	mov	r1, r26
    1d80:	aa 1b       	sub	r26, r26
    1d82:	bb 1b       	sub	r27, r27
    1d84:	fd 01       	movw	r30, r26
    1d86:	0d c0       	rjmp	.+26     	; 0x1da2 <__udivmodsi4_ep>

00001d88 <__udivmodsi4_loop>:
    1d88:	aa 1f       	adc	r26, r26
    1d8a:	bb 1f       	adc	r27, r27
    1d8c:	ee 1f       	adc	r30, r30
    1d8e:	ff 1f       	adc	r31, r31
    1d90:	a2 17       	cp	r26, r18
    1d92:	b3 07       	cpc	r27, r19
    1d94:	e4 07       	cpc	r30, r20
    1d96:	f5 07       	cpc	r31, r21
    1d98:	20 f0       	brcs	.+8      	; 0x1da2 <__udivmodsi4_ep>
    1d9a:	a2 1b       	sub	r26, r18
    1d9c:	b3 0b       	sbc	r27, r19
    1d9e:	e4 0b       	sbc	r30, r20
    1da0:	f5 0b       	sbc	r31, r21

00001da2 <__udivmodsi4_ep>:
    1da2:	66 1f       	adc	r22, r22
    1da4:	77 1f       	adc	r23, r23
    1da6:	88 1f       	adc	r24, r24
    1da8:	99 1f       	adc	r25, r25
    1daa:	1a 94       	dec	r1
    1dac:	69 f7       	brne	.-38     	; 0x1d88 <__udivmodsi4_loop>
    1dae:	60 95       	com	r22
    1db0:	70 95       	com	r23
    1db2:	80 95       	com	r24
    1db4:	90 95       	com	r25
    1db6:	9b 01       	movw	r18, r22
    1db8:	ac 01       	movw	r20, r24
    1dba:	bd 01       	movw	r22, r26
    1dbc:	cf 01       	movw	r24, r30
    1dbe:	08 95       	ret

00001dc0 <_exit>:
    1dc0:	f8 94       	cli

00001dc2 <__stop_program>:
    1dc2:	ff cf       	rjmp	.-2      	; 0x1dc2 <__stop_program>
